ARM GAS  C:\Users\celua\AppData\Local\Temp\ccIuLXOi.s 			page 1


   1              		.syntax unified
   2              		.cpu cortex-m3
   3              		.fpu softvfp
   4              		.eabi_attribute 20, 1
   5              		.eabi_attribute 21, 1
   6              		.eabi_attribute 23, 3
   7              		.eabi_attribute 24, 1
   8              		.eabi_attribute 25, 1
   9              		.eabi_attribute 26, 1
  10              		.eabi_attribute 30, 6
  11              		.eabi_attribute 34, 1
  12              		.eabi_attribute 18, 4
  13              		.thumb
  14              		.syntax unified
  15              		.file	"main.c"
  16              		.text
  17              	.Ltext0:
  18              		.cfi_sections	.debug_frame
  19              		.comm	result,32,4
  20              		.section	.text.main,"ax",%progbits
  21              		.align	2
  22              		.global	main
  23              		.thumb
  24              		.thumb_func
  25              		.type	main, %function
  26              	main:
  27              	.LFB63:
  28              		.file 1 "main.c"
   1:main.c        **** #include <project.h>
   2:main.c        **** 
   3:main.c        **** /* There are 16 input channels */
   4:main.c        **** #define NUMCHAN (16u)
   5:main.c        **** 
   6:main.c        **** /* DMA configuration constants for DMA_1 */
   7:main.c        **** #define DMA_1_BYTES_PER_BURST (2u)
   8:main.c        **** #define DMA_1_REQUEST_PER_BURST (1u)
   9:main.c        **** #define DMA_1_SRC_BASE (CYDEV_PERIPH_BASE)
  10:main.c        **** #define DMA_1_DST_BASE (CYDEV_SRAM_BASE)
  11:main.c        **** 
  12:main.c        **** /* 16-bit wide SRAM buffer with 16 locations into which DMA writes ADC readings */
  13:main.c        **** uint16 result[NUMCHAN];
  14:main.c        **** 
  15:main.c        **** void DMA_Config(void);
  16:main.c        **** 
  17:main.c        **** 
  18:main.c        **** /*******************************************************************************
  19:main.c        **** * Function Name: main
  20:main.c        **** ********************************************************************************
  21:main.c        **** *
  22:main.c        **** * Summary:
  23:main.c        **** *  main() performs following functions:
  24:main.c        **** *  1: Starts the components
  25:main.c        **** *  2: Calls function DMA_Config to setup the DMA.
  26:main.c        **** *  3: Starts ADC continuous conversion.
  27:main.c        **** *  4: Gets the converted result and displays it in LCD. Also displays VDAC data
  28:main.c        **** *     register value on LCD.
  29:main.c        **** *
ARM GAS  C:\Users\celua\AppData\Local\Temp\ccIuLXOi.s 			page 2


  30:main.c        **** * Parameters:
  31:main.c        **** *  None.
  32:main.c        **** *
  33:main.c        **** * Return:
  34:main.c        **** *  None.
  35:main.c        **** *
  36:main.c        **** *******************************************************************************/
  37:main.c        **** int main()
  38:main.c        **** {
  29              		.loc 1 38 0
  30              		.cfi_startproc
  31              		@ args = 0, pretend = 0, frame = 8
  32              		@ frame_needed = 1, uses_anonymous_args = 0
  33 0000 80B5     		push	{r7, lr}
  34              		.cfi_def_cfa_offset 8
  35              		.cfi_offset 7, -8
  36              		.cfi_offset 14, -4
  37 0002 82B0     		sub	sp, sp, #8
  38              		.cfi_def_cfa_offset 16
  39 0004 00AF     		add	r7, sp, #0
  40              		.cfi_def_cfa_register 7
  39:main.c        ****     /* Initialize variable that indicates which mux channel is displayed on LCD */
  40:main.c        ****     uint8 curChan = 0u;
  41              		.loc 1 40 0
  42 0006 0023     		movs	r3, #0
  43 0008 FB71     		strb	r3, [r7, #7]
  41:main.c        **** 
  42:main.c        ****     LCD_Start();
  44              		.loc 1 42 0
  45 000a FFF7FEFF 		bl	LCD_Start
  43:main.c        ****     ADC_Start();
  46              		.loc 1 43 0
  47 000e FFF7FEFF 		bl	ADC_Start
  44:main.c        ****     Delay_PWM_Start();
  48              		.loc 1 44 0
  49 0012 FFF7FEFF 		bl	Delay_PWM_Start
  45:main.c        **** 
  46:main.c        ****     DMA_Config();
  50              		.loc 1 46 0
  51 0016 FFF7FEFF 		bl	DMA_Config
  47:main.c        **** 
  48:main.c        ****     /* Enable ADC SOC to be triggered by PWM output */
  49:main.c        ****     Start_Reg_Write(1u);
  52              		.loc 1 49 0
  53 001a 0120     		movs	r0, #1
  54 001c FFF7FEFF 		bl	Start_Reg_Write
  55              	.L3:
  50:main.c        **** 
  51:main.c        ****     for(;;)
  52:main.c        ****     {
  53:main.c        ****         /*LCD_ClearDisplay();
  54:main.c        ****         LCD_PrintString("Channel: ");
  55:main.c        ****         LCD_PrintNumber(curChan);
  56:main.c        **** 
  57:main.c        ****         LCD_Position(1u, 0u);
  58:main.c        ****         LCD_PrintNumber(result[curChan]);
  59:main.c        **** */
ARM GAS  C:\Users\celua\AppData\Local\Temp\ccIuLXOi.s 			page 3


  60:main.c        ****         /* For ease of reading LCD */
  61:main.c        ****   //      CyDelay(100u/*ms*/);
  62:main.c        **** 
  63:main.c        ****         /* If SW2 is pressed */
  64:main.c        ****        // if(!ChannelSelect_Read())
  65:main.c        ****       //  {
  66:main.c        ****             /* Wait until button is released */
  67:main.c        ****     /*        while(!ChannelSelect_Read())
  68:main.c        ****             {
  69:main.c        ****             }
  70:main.c        **** */
  71:main.c        ****             /* Increment to next channel for display */
  72:main.c        ****             curChan++;
  56              		.loc 1 72 0
  57 0020 FB79     		ldrb	r3, [r7, #7]	@ zero_extendqisi2
  58 0022 0133     		adds	r3, r3, #1
  59 0024 FB71     		strb	r3, [r7, #7]
  73:main.c        **** 
  74:main.c        ****             /* If we are at channel 16, reset to channel 0 */
  75:main.c        ****             if(curChan == NUMCHAN)
  60              		.loc 1 75 0
  61 0026 FB79     		ldrb	r3, [r7, #7]	@ zero_extendqisi2
  62 0028 102B     		cmp	r3, #16
  63 002a F9D1     		bne	.L3
  76:main.c        ****             {
  77:main.c        ****                 curChan = 0u;
  64              		.loc 1 77 0
  65 002c 0023     		movs	r3, #0
  66 002e FB71     		strb	r3, [r7, #7]
  78:main.c        ****             }
  79:main.c        ****        }
  67              		.loc 1 79 0
  68 0030 F6E7     		b	.L3
  69              		.cfi_endproc
  70              	.LFE63:
  71              		.size	main, .-main
  72 0032 00BF     		.section	.text.DMA_Config,"ax",%progbits
  73              		.align	2
  74              		.global	DMA_Config
  75              		.thumb
  76              		.thumb_func
  77              		.type	DMA_Config, %function
  78              	DMA_Config:
  79              	.LFB64:
  80:main.c        ****     //}
  81:main.c        **** }
  82:main.c        **** 
  83:main.c        **** 
  84:main.c        **** /*******************************************************************************
  85:main.c        **** * Function Name:  DMA_Config
  86:main.c        **** ********************************************************************************
  87:main.c        **** *
  88:main.c        **** * Summary:
  89:main.c        **** *    Code generated by the DMA Wizard.
  90:main.c        **** *
  91:main.c        **** *    DMA_Config() performs following functions:
  92:main.c        **** *  1: Initializes the DMA channel
ARM GAS  C:\Users\celua\AppData\Local\Temp\ccIuLXOi.s 			page 4


  93:main.c        **** *  2: Allocates Transfer Descriptors
  94:main.c        **** *  3: Configures the TD.
  95:main.c        **** *  4: Sets source and destination address for this TD.
  96:main.c        **** *  5: Initializes the TD.
  97:main.c        **** *  6: Enables the DMA channel.
  98:main.c        **** *
  99:main.c        **** * Parameters:
 100:main.c        **** *  None.
 101:main.c        **** *
 102:main.c        **** * Return:
 103:main.c        **** *  None.
 104:main.c        **** *
 105:main.c        **** *******************************************************************************/
 106:main.c        **** void DMA_Config()
 107:main.c        **** {
  80              		.loc 1 107 0
  81              		.cfi_startproc
  82              		@ args = 0, pretend = 0, frame = 8
  83              		@ frame_needed = 1, uses_anonymous_args = 0
  84 0000 80B5     		push	{r7, lr}
  85              		.cfi_def_cfa_offset 8
  86              		.cfi_offset 7, -8
  87              		.cfi_offset 14, -4
  88 0002 82B0     		sub	sp, sp, #8
  89              		.cfi_def_cfa_offset 16
  90 0004 00AF     		add	r7, sp, #0
  91              		.cfi_def_cfa_register 7
 108:main.c        ****     /* Variable declarations for DMA_1 */
 109:main.c        ****     uint8 DMA_1_Chan;
 110:main.c        ****     uint8 DMA_1_TD[1];
 111:main.c        **** 
 112:main.c        ****     /* Iniitialize DMA channel */
 113:main.c        ****     DMA_1_Chan = DMA_1_DmaInitialize(DMA_1_BYTES_PER_BURST, DMA_1_REQUEST_PER_BURST,
  92              		.loc 1 113 0
  93 0006 41F6FF73 		movw	r3, #8191
  94 000a 4FF48042 		mov	r2, #16384
  95 000e 0121     		movs	r1, #1
  96 0010 0220     		movs	r0, #2
  97 0012 FFF7FEFF 		bl	DMA_1_DmaInitialize
  98 0016 0346     		mov	r3, r0
  99 0018 FB71     		strb	r3, [r7, #7]
 114:main.c        ****         HI16(DMA_1_SRC_BASE), HI16(DMA_1_DST_BASE));
 115:main.c        **** 
 116:main.c        ****     /* Allocate TD */
 117:main.c        ****     DMA_1_TD[0] = CyDmaTdAllocate();
 100              		.loc 1 117 0
 101 001a FFF7FEFF 		bl	CyDmaTdAllocate
 102 001e 0346     		mov	r3, r0
 103 0020 3B71     		strb	r3, [r7, #4]
 118:main.c        **** 
 119:main.c        ****     /* TD configuration setting */
 120:main.c        ****     #if (CY_PSOC3)
 121:main.c        ****         CyDmaTdSetConfiguration(DMA_1_TD[0], 2u * NUMCHAN, DMA_1_TD[0], TD_SWAP_EN | TD_INC_DST_ADR
 122:main.c        ****     #else
 123:main.c        ****         CyDmaTdSetConfiguration(DMA_1_TD[0], 2u * NUMCHAN, DMA_1_TD[0], TD_INC_DST_ADR);
 104              		.loc 1 123 0
 105 0022 3879     		ldrb	r0, [r7, #4]	@ zero_extendqisi2
ARM GAS  C:\Users\celua\AppData\Local\Temp\ccIuLXOi.s 			page 5


 106 0024 3A79     		ldrb	r2, [r7, #4]	@ zero_extendqisi2
 107 0026 0223     		movs	r3, #2
 108 0028 2021     		movs	r1, #32
 109 002a FFF7FEFF 		bl	CyDmaTdSetConfiguration
 124:main.c        ****     #endif
 125:main.c        **** 
 126:main.c        ****     /* Set Source and Destination address */
 127:main.c        ****     CyDmaTdSetAddress(DMA_1_TD[0], LO16((uint32)ADC_DEC_SAMP_PTR), LO16((uint32)result));
 110              		.loc 1 127 0
 111 002e 3B79     		ldrb	r3, [r7, #4]	@ zero_extendqisi2
 112 0030 0A4A     		ldr	r2, .L5
 113 0032 92B2     		uxth	r2, r2
 114 0034 44F61061 		movw	r1, #19984
 115 0038 1846     		mov	r0, r3
 116 003a FFF7FEFF 		bl	CyDmaTdSetAddress
 128:main.c        **** 
 129:main.c        ****     /* TD initialization */
 130:main.c        ****     CyDmaChSetInitialTd(DMA_1_Chan, DMA_1_TD[0]);
 117              		.loc 1 130 0
 118 003e 3A79     		ldrb	r2, [r7, #4]	@ zero_extendqisi2
 119 0040 FB79     		ldrb	r3, [r7, #7]	@ zero_extendqisi2
 120 0042 1146     		mov	r1, r2
 121 0044 1846     		mov	r0, r3
 122 0046 FFF7FEFF 		bl	CyDmaChSetInitialTd
 131:main.c        **** 
 132:main.c        ****     /* Enable the DMA channel */
 133:main.c        ****     CyDmaChEnable(DMA_1_Chan, 1u);
 123              		.loc 1 133 0
 124 004a FB79     		ldrb	r3, [r7, #7]	@ zero_extendqisi2
 125 004c 0121     		movs	r1, #1
 126 004e 1846     		mov	r0, r3
 127 0050 FFF7FEFF 		bl	CyDmaChEnable
 134:main.c        **** 
 135:main.c        **** }
 128              		.loc 1 135 0
 129 0054 00BF     		nop
 130 0056 0837     		adds	r7, r7, #8
 131              		.cfi_def_cfa_offset 8
 132 0058 BD46     		mov	sp, r7
 133              		.cfi_def_cfa_register 13
 134              		@ sp needed
 135 005a 80BD     		pop	{r7, pc}
 136              	.L6:
 137              		.align	2
 138              	.L5:
 139 005c 00000000 		.word	result
 140              		.cfi_endproc
 141              	.LFE64:
 142              		.size	DMA_Config, .-DMA_Config
 143              		.text
 144              	.Letext0:
 145              		.file 2 "c:\\program files (x86)\\cypress\\psoc creator\\4.4\\psoc creator\\import\\gnu\\arm\\5.4.
 146              		.file 3 "c:\\program files (x86)\\cypress\\psoc creator\\4.4\\psoc creator\\import\\gnu\\arm\\5.4.
 147              		.file 4 "Generated_Source\\PSoC5/cytypes.h"
 148              		.file 5 "Generated_Source\\PSoC5/core_cm3.h"