ARM GAS  C:\Users\celua\AppData\Local\Temp\cc8imhxh.s 			page 1


   1              		.syntax unified
   2              		.cpu cortex-m3
   3              		.fpu softvfp
   4              		.eabi_attribute 20, 1
   5              		.eabi_attribute 21, 1
   6              		.eabi_attribute 23, 3
   7              		.eabi_attribute 24, 1
   8              		.eabi_attribute 25, 1
   9              		.eabi_attribute 26, 1
  10              		.eabi_attribute 30, 1
  11              		.eabi_attribute 34, 1
  12              		.eabi_attribute 18, 4
  13              		.thumb
  14              		.syntax unified
  15              		.file	"ADC.c"
  16              		.text
  17              	.Ltext0:
  18              		.cfi_sections	.debug_frame
  19              		.section	.text.ADC_GainCompensation,"ax",%progbits
  20              		.align	2
  21              		.thumb
  22              		.thumb_func
  23              		.type	ADC_GainCompensation, %function
  24              	ADC_GainCompensation:
  25              	.LFB21:
  26              		.file 1 "Generated_Source\\PSoC5\\ADC.c"
   1:Generated_Source\PSoC5/ADC.c **** /*******************************************************************************
   2:Generated_Source\PSoC5/ADC.c **** * File Name: ADC.c
   3:Generated_Source\PSoC5/ADC.c **** * Version 3.20
   4:Generated_Source\PSoC5/ADC.c **** *
   5:Generated_Source\PSoC5/ADC.c **** * Description:
   6:Generated_Source\PSoC5/ADC.c **** *  This file provides the source code to the API for the Delta-Sigma ADC
   7:Generated_Source\PSoC5/ADC.c **** *  Component.
   8:Generated_Source\PSoC5/ADC.c **** *
   9:Generated_Source\PSoC5/ADC.c **** * Note:
  10:Generated_Source\PSoC5/ADC.c **** *
  11:Generated_Source\PSoC5/ADC.c **** ********************************************************************************
  12:Generated_Source\PSoC5/ADC.c **** * Copyright 2008-2015, Cypress Semiconductor Corporation.  All rights reserved.
  13:Generated_Source\PSoC5/ADC.c **** * You may use this file only in accordance with the license, terms, conditions,
  14:Generated_Source\PSoC5/ADC.c **** * disclaimers, and limitations in the end user license agreement accompanying
  15:Generated_Source\PSoC5/ADC.c **** * the software package with which this file was provided.
  16:Generated_Source\PSoC5/ADC.c **** *******************************************************************************/
  17:Generated_Source\PSoC5/ADC.c **** 
  18:Generated_Source\PSoC5/ADC.c **** #include "ADC.h"
  19:Generated_Source\PSoC5/ADC.c **** 
  20:Generated_Source\PSoC5/ADC.c **** #if(ADC_DEFAULT_INTERNAL_CLK)
  21:Generated_Source\PSoC5/ADC.c ****     #include "ADC_theACLK.h"
  22:Generated_Source\PSoC5/ADC.c **** #endif /* ADC_DEFAULT_INTERNAL_CLK */
  23:Generated_Source\PSoC5/ADC.c **** 
  24:Generated_Source\PSoC5/ADC.c **** #include "ADC_Ext_CP_Clk.h"
  25:Generated_Source\PSoC5/ADC.c **** 
  26:Generated_Source\PSoC5/ADC.c **** #if(ADC_DEFAULT_INPUT_MODE)
  27:Generated_Source\PSoC5/ADC.c ****     #include "ADC_AMux.h"
  28:Generated_Source\PSoC5/ADC.c **** #endif /* ADC_DEFAULT_INPUT_MODE */
  29:Generated_Source\PSoC5/ADC.c **** 
  30:Generated_Source\PSoC5/ADC.c **** 
  31:Generated_Source\PSoC5/ADC.c **** /***************************************
ARM GAS  C:\Users\celua\AppData\Local\Temp\cc8imhxh.s 			page 2


  32:Generated_Source\PSoC5/ADC.c **** * Global data allocation
  33:Generated_Source\PSoC5/ADC.c **** ***************************************/
  34:Generated_Source\PSoC5/ADC.c **** 
  35:Generated_Source\PSoC5/ADC.c **** /* Software flag for checking conversion completed or not */
  36:Generated_Source\PSoC5/ADC.c **** volatile uint8 ADC_convDone = 0u;
  37:Generated_Source\PSoC5/ADC.c **** 
  38:Generated_Source\PSoC5/ADC.c **** /* Software flag to stop conversion for single sample conversion mode
  39:Generated_Source\PSoC5/ADC.c **** *   with resolution above 16 bits 
  40:Generated_Source\PSoC5/ADC.c **** */
  41:Generated_Source\PSoC5/ADC.c **** volatile uint8 ADC_stopConversion = 0u;
  42:Generated_Source\PSoC5/ADC.c **** 
  43:Generated_Source\PSoC5/ADC.c **** /* To run the initialization block only at the start up */
  44:Generated_Source\PSoC5/ADC.c **** uint8 ADC_initVar = 0u;
  45:Generated_Source\PSoC5/ADC.c **** 
  46:Generated_Source\PSoC5/ADC.c **** /* To check whether ADC started or not before switching the configuration */
  47:Generated_Source\PSoC5/ADC.c **** volatile uint8 ADC_started = 0u;
  48:Generated_Source\PSoC5/ADC.c **** 
  49:Generated_Source\PSoC5/ADC.c **** /* Flag to hold ADC config number. By default active config is 1. */
  50:Generated_Source\PSoC5/ADC.c **** volatile uint8 ADC_Config = 1u;
  51:Generated_Source\PSoC5/ADC.c **** 
  52:Generated_Source\PSoC5/ADC.c **** volatile int32 ADC_Offset;
  53:Generated_Source\PSoC5/ADC.c **** volatile int32 ADC_CountsPerVolt;
  54:Generated_Source\PSoC5/ADC.c **** 
  55:Generated_Source\PSoC5/ADC.c **** 
  56:Generated_Source\PSoC5/ADC.c **** /***************************************
  57:Generated_Source\PSoC5/ADC.c **** * Local data allocation
  58:Generated_Source\PSoC5/ADC.c **** ***************************************/
  59:Generated_Source\PSoC5/ADC.c **** 
  60:Generated_Source\PSoC5/ADC.c **** /* The array with precalculated gain compensation coefficients */
  61:Generated_Source\PSoC5/ADC.c **** static ADC_GCOR_STRUCT ADC_gcor[ADC_DEFAULT_NUM_CONFIGS];
  62:Generated_Source\PSoC5/ADC.c **** 
  63:Generated_Source\PSoC5/ADC.c **** 
  64:Generated_Source\PSoC5/ADC.c **** 
  65:Generated_Source\PSoC5/ADC.c **** /***************************************
  66:Generated_Source\PSoC5/ADC.c **** * Forward function references
  67:Generated_Source\PSoC5/ADC.c **** ***************************************/
  68:Generated_Source\PSoC5/ADC.c **** static void ADC_InitConfig(uint8 config) ;
  69:Generated_Source\PSoC5/ADC.c **** static void ADC_GainCompensation(uint8 inputRange, uint16 idealDecGain, uint16 idealOddDecGain, 
  70:Generated_Source\PSoC5/ADC.c ****                             uint8 resolution, uint8 config) ;
  71:Generated_Source\PSoC5/ADC.c **** static void ADC_SetDSMRef0Reg(uint8 value) ;
  72:Generated_Source\PSoC5/ADC.c **** 
  73:Generated_Source\PSoC5/ADC.c **** 
  74:Generated_Source\PSoC5/ADC.c **** /******************************************************************************
  75:Generated_Source\PSoC5/ADC.c **** * Function Name: ADC_Init
  76:Generated_Source\PSoC5/ADC.c **** *******************************************************************************
  77:Generated_Source\PSoC5/ADC.c **** *
  78:Generated_Source\PSoC5/ADC.c **** * Summary:
  79:Generated_Source\PSoC5/ADC.c **** *  Initialize component's parameters to the parameters set by user in the
  80:Generated_Source\PSoC5/ADC.c **** *  customizer of the component placed onto schematic. Usually called in
  81:Generated_Source\PSoC5/ADC.c **** * ADC_Start().
  82:Generated_Source\PSoC5/ADC.c **** *
  83:Generated_Source\PSoC5/ADC.c **** *
  84:Generated_Source\PSoC5/ADC.c **** * Parameters:
  85:Generated_Source\PSoC5/ADC.c **** *  None
  86:Generated_Source\PSoC5/ADC.c **** *
  87:Generated_Source\PSoC5/ADC.c **** * Return:
  88:Generated_Source\PSoC5/ADC.c **** *  None
ARM GAS  C:\Users\celua\AppData\Local\Temp\cc8imhxh.s 			page 3


  89:Generated_Source\PSoC5/ADC.c **** *
  90:Generated_Source\PSoC5/ADC.c **** *******************************************************************************/
  91:Generated_Source\PSoC5/ADC.c **** void ADC_Init(void) 
  92:Generated_Source\PSoC5/ADC.c **** {
  93:Generated_Source\PSoC5/ADC.c **** 
  94:Generated_Source\PSoC5/ADC.c ****     ADC_Config = 1u;
  95:Generated_Source\PSoC5/ADC.c ****     ADC_convDone = 0u;
  96:Generated_Source\PSoC5/ADC.c **** 
  97:Generated_Source\PSoC5/ADC.c ****     ADC_Ext_CP_Clk_SetMode(CYCLK_DUTY);
  98:Generated_Source\PSoC5/ADC.c **** 
  99:Generated_Source\PSoC5/ADC.c ****     /* This is only valid if there is an internal clock */
 100:Generated_Source\PSoC5/ADC.c ****     #if(ADC_DEFAULT_INTERNAL_CLK)
 101:Generated_Source\PSoC5/ADC.c ****         ADC_theACLK_SetMode(CYCLK_DUTY);
 102:Generated_Source\PSoC5/ADC.c ****     #endif /* ADC_DEFAULT_INTERNAL_CLK */
 103:Generated_Source\PSoC5/ADC.c **** 
 104:Generated_Source\PSoC5/ADC.c ****     #if(ADC_IRQ_REMOVE == 0u)
 105:Generated_Source\PSoC5/ADC.c ****         /* Set interrupt priority */
 106:Generated_Source\PSoC5/ADC.c ****         CyIntSetPriority(ADC_INTC_NUMBER, ADC_INTC_PRIOR_NUMBER);
 107:Generated_Source\PSoC5/ADC.c ****     #endif   /* End ADC_IRQ_REMOVE */
 108:Generated_Source\PSoC5/ADC.c **** 
 109:Generated_Source\PSoC5/ADC.c ****     /* Init static registers with common configuration */
 110:Generated_Source\PSoC5/ADC.c ****     ADC_DSM_DEM0_REG    = ADC_CFG1_DSM_DEM0;
 111:Generated_Source\PSoC5/ADC.c ****     ADC_DSM_DEM1_REG    = ADC_CFG1_DSM_DEM1;
 112:Generated_Source\PSoC5/ADC.c ****     ADC_DSM_MISC_REG    = ADC_CFG1_DSM_MISC;
 113:Generated_Source\PSoC5/ADC.c ****     ADC_DSM_CLK_REG    |= ADC_CFG1_DSM_CLK;
 114:Generated_Source\PSoC5/ADC.c ****     ADC_DSM_REF1_REG    = ADC_CFG1_DSM_REF1;
 115:Generated_Source\PSoC5/ADC.c **** 
 116:Generated_Source\PSoC5/ADC.c ****     ADC_DSM_OUT0_REG    = ADC_CFG1_DSM_OUT0;
 117:Generated_Source\PSoC5/ADC.c ****     ADC_DSM_OUT1_REG    = ADC_CFG1_DSM_OUT1;
 118:Generated_Source\PSoC5/ADC.c **** 
 119:Generated_Source\PSoC5/ADC.c ****     ADC_DSM_CR0_REG     = ADC_CFG1_DSM_CR0;
 120:Generated_Source\PSoC5/ADC.c ****     ADC_DSM_CR1_REG     = ADC_CFG1_DSM_CR1;
 121:Generated_Source\PSoC5/ADC.c **** #if(ADC_MI_ENABLE != 0u) /* Enable Modulator Input */
 122:Generated_Source\PSoC5/ADC.c ****     ADC_DSM_CR3_REG     |= ADC_DSM_MODBIT_EN;
 123:Generated_Source\PSoC5/ADC.c **** #else
 124:Generated_Source\PSoC5/ADC.c ****     ADC_DSM_CR3_REG     = ADC_CFG1_DSM_CR3;
 125:Generated_Source\PSoC5/ADC.c **** #endif /* ADC_MI_ENABLE != 0u*/    
 126:Generated_Source\PSoC5/ADC.c ****     ADC_DSM_CR8_REG     = ADC_CFG1_DSM_CR8;
 127:Generated_Source\PSoC5/ADC.c ****     ADC_DSM_CR9_REG     = ADC_CFG1_DSM_CR9;
 128:Generated_Source\PSoC5/ADC.c ****     ADC_DSM_CR13_REG    = ADC_CFG1_DSM_CR13;
 129:Generated_Source\PSoC5/ADC.c **** 
 130:Generated_Source\PSoC5/ADC.c ****     ADC_DEC_SR_REG      = ADC_CFG1_DEC_SR;
 131:Generated_Source\PSoC5/ADC.c **** 
 132:Generated_Source\PSoC5/ADC.c ****     /* Calculate Gain compensation coefficients for all configurations */
 133:Generated_Source\PSoC5/ADC.c ****     ADC_GainCompensation(ADC_CFG1_INPUT_RANGE,
 134:Generated_Source\PSoC5/ADC.c ****                                       ADC_CFG1_IDEAL_DEC_GAIN,
 135:Generated_Source\PSoC5/ADC.c ****                                       ADC_CFG1_IDEAL_ODDDEC_GAIN,
 136:Generated_Source\PSoC5/ADC.c ****                                       ADC_CFG1_RESOLUTION,
 137:Generated_Source\PSoC5/ADC.c ****                                       ADC_CFG1);
 138:Generated_Source\PSoC5/ADC.c ****     #if(ADC_DEFAULT_NUM_CONFIGS > 1)
 139:Generated_Source\PSoC5/ADC.c ****         ADC_GainCompensation(ADC_CFG2_INPUT_RANGE,
 140:Generated_Source\PSoC5/ADC.c ****                                           ADC_CFG2_IDEAL_DEC_GAIN,
 141:Generated_Source\PSoC5/ADC.c ****                                           ADC_CFG2_IDEAL_ODDDEC_GAIN,
 142:Generated_Source\PSoC5/ADC.c ****                                           ADC_CFG2_RESOLUTION,
 143:Generated_Source\PSoC5/ADC.c ****                                           ADC_CFG2);
 144:Generated_Source\PSoC5/ADC.c ****     #endif /* ADC_DEFAULT_NUM_CONFIGS > 1 */
 145:Generated_Source\PSoC5/ADC.c ****     #if(ADC_DEFAULT_NUM_CONFIGS > 2)
ARM GAS  C:\Users\celua\AppData\Local\Temp\cc8imhxh.s 			page 4


 146:Generated_Source\PSoC5/ADC.c ****         ADC_GainCompensation(ADC_CFG3_INPUT_RANGE,
 147:Generated_Source\PSoC5/ADC.c ****                                           ADC_CFG3_IDEAL_DEC_GAIN,
 148:Generated_Source\PSoC5/ADC.c ****                                           ADC_CFG3_IDEAL_ODDDEC_GAIN,
 149:Generated_Source\PSoC5/ADC.c ****                                           ADC_CFG3_RESOLUTION,
 150:Generated_Source\PSoC5/ADC.c ****                                           ADC_CFG3);
 151:Generated_Source\PSoC5/ADC.c ****     #endif /* ADC_DEFAULT_NUM_CONFIGS > 2 */
 152:Generated_Source\PSoC5/ADC.c ****     #if(ADC_DEFAULT_NUM_CONFIGS > 3)
 153:Generated_Source\PSoC5/ADC.c ****         ADC_GainCompensation(ADC_CFG4_INPUT_RANGE,
 154:Generated_Source\PSoC5/ADC.c ****                                           ADC_CFG4_IDEAL_DEC_GAIN,
 155:Generated_Source\PSoC5/ADC.c ****                                           ADC_CFG4_IDEAL_ODDDEC_GAIN,
 156:Generated_Source\PSoC5/ADC.c ****                                           ADC_CFG4_RESOLUTION,
 157:Generated_Source\PSoC5/ADC.c ****                                           ADC_CFG4);
 158:Generated_Source\PSoC5/ADC.c ****     #endif /* ADC_DEFAULT_NUM_CONFIGS > 3 */
 159:Generated_Source\PSoC5/ADC.c **** 
 160:Generated_Source\PSoC5/ADC.c ****     /* Set GCOR register for config1 */
 161:Generated_Source\PSoC5/ADC.c ****     ADC_DEC_GVAL_REG = ADC_gcor[ADC_Config - 1u].gval;
 162:Generated_Source\PSoC5/ADC.c ****     CY_SET_REG16(ADC_DEC_GCOR_16B_PTR, ADC_gcor[ADC_Config - 1u].gcor);
 163:Generated_Source\PSoC5/ADC.c **** 
 164:Generated_Source\PSoC5/ADC.c ****     /* Initialize the registers with default customizer settings for config1 */
 165:Generated_Source\PSoC5/ADC.c ****     ADC_InitConfig(ADC_Config);
 166:Generated_Source\PSoC5/ADC.c **** }
 167:Generated_Source\PSoC5/ADC.c **** 
 168:Generated_Source\PSoC5/ADC.c **** 
 169:Generated_Source\PSoC5/ADC.c **** /******************************************************************************
 170:Generated_Source\PSoC5/ADC.c **** * Function Name: ADC_Enable
 171:Generated_Source\PSoC5/ADC.c **** *******************************************************************************
 172:Generated_Source\PSoC5/ADC.c **** *
 173:Generated_Source\PSoC5/ADC.c **** * Summary:
 174:Generated_Source\PSoC5/ADC.c **** *  Enables the ADC DelSig block operation.
 175:Generated_Source\PSoC5/ADC.c **** *
 176:Generated_Source\PSoC5/ADC.c **** *
 177:Generated_Source\PSoC5/ADC.c **** * Parameters:
 178:Generated_Source\PSoC5/ADC.c **** *  None
 179:Generated_Source\PSoC5/ADC.c **** *
 180:Generated_Source\PSoC5/ADC.c **** * Return:
 181:Generated_Source\PSoC5/ADC.c **** *  None
 182:Generated_Source\PSoC5/ADC.c **** *
 183:Generated_Source\PSoC5/ADC.c **** *******************************************************************************/
 184:Generated_Source\PSoC5/ADC.c **** void ADC_Enable(void) 
 185:Generated_Source\PSoC5/ADC.c **** {
 186:Generated_Source\PSoC5/ADC.c **** 	uint8 config;
 187:Generated_Source\PSoC5/ADC.c ****     uint8 enableInterrupts;
 188:Generated_Source\PSoC5/ADC.c ****     enableInterrupts = CyEnterCriticalSection();
 189:Generated_Source\PSoC5/ADC.c **** 
 190:Generated_Source\PSoC5/ADC.c ****     /* Read volatile variable to the local variable */
 191:Generated_Source\PSoC5/ADC.c ****     config = ADC_Config;
 192:Generated_Source\PSoC5/ADC.c ****     
 193:Generated_Source\PSoC5/ADC.c ****     /* Enable active mode power for ADC */
 194:Generated_Source\PSoC5/ADC.c ****     ADC_PWRMGR_DEC_REG |= ADC_ACT_PWR_DEC_EN;
 195:Generated_Source\PSoC5/ADC.c ****     ADC_PWRMGR_DSM_REG |= ADC_ACT_PWR_DSM_EN;
 196:Generated_Source\PSoC5/ADC.c **** 
 197:Generated_Source\PSoC5/ADC.c ****      /* Enable alternative active mode power for ADC */
 198:Generated_Source\PSoC5/ADC.c ****     ADC_STBY_PWRMGR_DEC_REG |= ADC_STBY_PWR_DEC_EN;
 199:Generated_Source\PSoC5/ADC.c ****     ADC_STBY_PWRMGR_DSM_REG |= ADC_STBY_PWR_DSM_EN;
 200:Generated_Source\PSoC5/ADC.c **** 
 201:Generated_Source\PSoC5/ADC.c ****     /* Disable PRES, Enable power to VCMBUF0, REFBUF0 and REFBUF1, enable PRES */
 202:Generated_Source\PSoC5/ADC.c ****     ADC_RESET_CR4_REG |= ADC_IGNORE_PRESA1;
ARM GAS  C:\Users\celua\AppData\Local\Temp\cc8imhxh.s 			page 5


 203:Generated_Source\PSoC5/ADC.c ****     ADC_RESET_CR5_REG |= ADC_IGNORE_PRESA2;
 204:Generated_Source\PSoC5/ADC.c **** 
 205:Generated_Source\PSoC5/ADC.c ****     ADC_DSM_CR17_REG |= (ADC_DSM_EN_BUF_VREF | ADC_DSM_EN_BUF_VCM);
 206:Generated_Source\PSoC5/ADC.c **** 
 207:Generated_Source\PSoC5/ADC.c ****     /* Code to disable the REFBUF0 if reference chosen is External ref */
 208:Generated_Source\PSoC5/ADC.c ****     #if (((ADC_CFG1_REFERENCE == ADC_EXT_REF_ON_P03) || \
 209:Generated_Source\PSoC5/ADC.c ****           (ADC_CFG1_REFERENCE == ADC_EXT_REF_ON_P32)) || \
 210:Generated_Source\PSoC5/ADC.c ****          ((ADC_DEFAULT_NUM_CONFIGS > 1) && \
 211:Generated_Source\PSoC5/ADC.c ****           ((ADC_CFG2_REFERENCE == ADC_EXT_REF_ON_P03) ||  \
 212:Generated_Source\PSoC5/ADC.c ****            (ADC_CFG2_REFERENCE == ADC_EXT_REF_ON_P32))) || \
 213:Generated_Source\PSoC5/ADC.c ****          ((ADC_DEFAULT_NUM_CONFIGS > 2) && \
 214:Generated_Source\PSoC5/ADC.c ****           ((ADC_CFG3_REFERENCE == ADC_EXT_REF_ON_P03) ||  \
 215:Generated_Source\PSoC5/ADC.c ****            (ADC_CFG3_REFERENCE == ADC_EXT_REF_ON_P32))) || \
 216:Generated_Source\PSoC5/ADC.c ****          ((ADC_DEFAULT_NUM_CONFIGS > 3) && \
 217:Generated_Source\PSoC5/ADC.c ****           ((ADC_CFG4_REFERENCE == ADC_EXT_REF_ON_P03) || \
 218:Generated_Source\PSoC5/ADC.c ****            (ADC_CFG4_REFERENCE == ADC_EXT_REF_ON_P32))))
 219:Generated_Source\PSoC5/ADC.c ****         if (((config == 1u) &&
 220:Generated_Source\PSoC5/ADC.c ****             ((ADC_CFG1_REFERENCE == ADC_EXT_REF_ON_P03) ||
 221:Generated_Source\PSoC5/ADC.c ****              (ADC_CFG1_REFERENCE == ADC_EXT_REF_ON_P32))) ||
 222:Generated_Source\PSoC5/ADC.c ****             ((config == 2u) &&
 223:Generated_Source\PSoC5/ADC.c ****             ((ADC_CFG2_REFERENCE == ADC_EXT_REF_ON_P03) ||
 224:Generated_Source\PSoC5/ADC.c ****              (ADC_CFG2_REFERENCE == ADC_EXT_REF_ON_P32))) ||
 225:Generated_Source\PSoC5/ADC.c ****             ((config == 3u) &&
 226:Generated_Source\PSoC5/ADC.c ****             ((ADC_CFG3_REFERENCE == ADC_EXT_REF_ON_P03) ||
 227:Generated_Source\PSoC5/ADC.c ****              (ADC_CFG3_REFERENCE == ADC_EXT_REF_ON_P32))) ||
 228:Generated_Source\PSoC5/ADC.c ****             ((config == 4u) &&
 229:Generated_Source\PSoC5/ADC.c ****             ((ADC_CFG4_REFERENCE == ADC_EXT_REF_ON_P03) ||
 230:Generated_Source\PSoC5/ADC.c ****              (ADC_CFG4_REFERENCE == ADC_EXT_REF_ON_P32))))
 231:Generated_Source\PSoC5/ADC.c ****         {
 232:Generated_Source\PSoC5/ADC.c ****             /* Disable the REFBUF0 */
 233:Generated_Source\PSoC5/ADC.c ****             ADC_DSM_CR17_REG &= (uint8)~ADC_DSM_EN_BUF_VREF;
 234:Generated_Source\PSoC5/ADC.c ****         }
 235:Generated_Source\PSoC5/ADC.c ****     #endif /* External ref */
 236:Generated_Source\PSoC5/ADC.c **** 
 237:Generated_Source\PSoC5/ADC.c ****     #if (((ADC_CFG1_INPUT_RANGE == ADC_IR_VSSA_TO_2VREF) || \
 238:Generated_Source\PSoC5/ADC.c ****          ((ADC_DEFAULT_NUM_CONFIGS > 1) && \
 239:Generated_Source\PSoC5/ADC.c ****           (ADC_CFG2_INPUT_RANGE == ADC_IR_VSSA_TO_2VREF)) || \
 240:Generated_Source\PSoC5/ADC.c ****          ((ADC_DEFAULT_NUM_CONFIGS > 2) && \
 241:Generated_Source\PSoC5/ADC.c ****           (ADC_CFG3_INPUT_RANGE == ADC_IR_VSSA_TO_2VREF)) || \
 242:Generated_Source\PSoC5/ADC.c ****          ((ADC_DEFAULT_NUM_CONFIGS > 3) && \
 243:Generated_Source\PSoC5/ADC.c ****           (ADC_CFG4_INPUT_RANGE == ADC_IR_VSSA_TO_2VREF))))
 244:Generated_Source\PSoC5/ADC.c ****         if(((config == 1u) &&
 245:Generated_Source\PSoC5/ADC.c ****             (ADC_CFG1_INPUT_RANGE == ADC_IR_VSSA_TO_2VREF) &&
 246:Generated_Source\PSoC5/ADC.c ****             ((ADC_CFG1_REFERENCE != ADC_EXT_REF_ON_P03) &&
 247:Generated_Source\PSoC5/ADC.c ****              (ADC_CFG1_REFERENCE != ADC_EXT_REF_ON_P32))) ||
 248:Generated_Source\PSoC5/ADC.c ****              ((config == 2u) &&
 249:Generated_Source\PSoC5/ADC.c ****               (ADC_CFG2_INPUT_RANGE == ADC_IR_VSSA_TO_2VREF) &&
 250:Generated_Source\PSoC5/ADC.c ****              ((ADC_CFG2_REFERENCE != ADC_EXT_REF_ON_P03) &&
 251:Generated_Source\PSoC5/ADC.c ****              (ADC_CFG2_REFERENCE != ADC_EXT_REF_ON_P32))) ||
 252:Generated_Source\PSoC5/ADC.c ****              ((config == 3u) &&
 253:Generated_Source\PSoC5/ADC.c ****               (ADC_CFG3_INPUT_RANGE == ADC_IR_VSSA_TO_2VREF) &&
 254:Generated_Source\PSoC5/ADC.c ****              ((ADC_CFG3_REFERENCE != ADC_EXT_REF_ON_P03) &&
 255:Generated_Source\PSoC5/ADC.c ****              (ADC_CFG3_REFERENCE != ADC_EXT_REF_ON_P32))) ||
 256:Generated_Source\PSoC5/ADC.c ****              ((config == 4u) &&
 257:Generated_Source\PSoC5/ADC.c ****               (ADC_CFG4_INPUT_RANGE == ADC_IR_VSSA_TO_2VREF) &&
 258:Generated_Source\PSoC5/ADC.c ****              ((ADC_CFG4_REFERENCE != ADC_EXT_REF_ON_P03) &&
 259:Generated_Source\PSoC5/ADC.c ****              (ADC_CFG4_REFERENCE != ADC_EXT_REF_ON_P32))))
ARM GAS  C:\Users\celua\AppData\Local\Temp\cc8imhxh.s 			page 6


 260:Generated_Source\PSoC5/ADC.c ****         {
 261:Generated_Source\PSoC5/ADC.c ****             /* Enable the REFBUF1 */
 262:Generated_Source\PSoC5/ADC.c ****             ADC_DSM_REF0_REG |= ADC_DSM_EN_BUF_VREF_INN;
 263:Generated_Source\PSoC5/ADC.c ****         }
 264:Generated_Source\PSoC5/ADC.c ****     #endif /* VSSA_TO_2VREF */
 265:Generated_Source\PSoC5/ADC.c ****     if(config != 0u)
 266:Generated_Source\PSoC5/ADC.c ****     {
 267:Generated_Source\PSoC5/ADC.c ****         /* Suppress compiler warning */
 268:Generated_Source\PSoC5/ADC.c ****     }
 269:Generated_Source\PSoC5/ADC.c **** 
 270:Generated_Source\PSoC5/ADC.c ****     /* Wait for 3 microseconds */
 271:Generated_Source\PSoC5/ADC.c ****     CyDelayUs(ADC_PRES_DELAY_TIME);
 272:Generated_Source\PSoC5/ADC.c **** 
 273:Generated_Source\PSoC5/ADC.c ****     /* Enable the press circuit */
 274:Generated_Source\PSoC5/ADC.c ****     ADC_RESET_CR4_REG &= (uint8)~ADC_IGNORE_PRESA1;
 275:Generated_Source\PSoC5/ADC.c ****     ADC_RESET_CR5_REG &= (uint8)~ADC_IGNORE_PRESA2;
 276:Generated_Source\PSoC5/ADC.c **** 
 277:Generated_Source\PSoC5/ADC.c ****     /* Enable negative pumps for DSM  */
 278:Generated_Source\PSoC5/ADC.c ****     ADC_PUMP_CR1_REG  |= ( ADC_PUMP_CR1_CLKSEL | ADC_PUMP_CR1_FORCE );
 279:Generated_Source\PSoC5/ADC.c **** 
 280:Generated_Source\PSoC5/ADC.c ****     /* Enable Modulator Chopping if required */
 281:Generated_Source\PSoC5/ADC.c ****     ADC_DSM_CR2_REG = ADC_CFG1_DSM_CR2;
 282:Generated_Source\PSoC5/ADC.c **** 
 283:Generated_Source\PSoC5/ADC.c ****     /* This is only valid if there is an internal clock */
 284:Generated_Source\PSoC5/ADC.c ****     #if(ADC_DEFAULT_INTERNAL_CLK)
 285:Generated_Source\PSoC5/ADC.c ****         ADC_PWRMGR_CLK_REG |= ADC_ACT_PWR_CLK_EN;
 286:Generated_Source\PSoC5/ADC.c ****         ADC_STBY_PWRMGR_CLK_REG |= ADC_STBY_PWR_CLK_EN;
 287:Generated_Source\PSoC5/ADC.c ****     #endif /* ADC_DEFAULT_INTERNAL_CLK */
 288:Generated_Source\PSoC5/ADC.c **** 
 289:Generated_Source\PSoC5/ADC.c ****     /* Enable the active and alternate active power for charge pump clock */
 290:Generated_Source\PSoC5/ADC.c ****     ADC_PWRMGR_CHARGE_PUMP_CLK_REG |= ADC_ACT_PWR_CHARGE_PUMP_CLK_EN;
 291:Generated_Source\PSoC5/ADC.c ****     ADC_STBY_PWRMGR_CHARGE_PUMP_CLK_REG |= ADC_STBY_PWR_CHARGE_PUMP_CLK_EN;
 292:Generated_Source\PSoC5/ADC.c **** 
 293:Generated_Source\PSoC5/ADC.c ****     #if(ADC_IRQ_REMOVE == 0u)
 294:Generated_Source\PSoC5/ADC.c ****         /* Clear a pending interrupt */
 295:Generated_Source\PSoC5/ADC.c ****         CyIntClearPending(ADC_INTC_NUMBER);
 296:Generated_Source\PSoC5/ADC.c ****         /* Enable interrupt */
 297:Generated_Source\PSoC5/ADC.c ****         CyIntEnable(ADC_INTC_NUMBER);
 298:Generated_Source\PSoC5/ADC.c ****     #endif   /* End ADC_IRQ_REMOVE */
 299:Generated_Source\PSoC5/ADC.c **** 
 300:Generated_Source\PSoC5/ADC.c ****     CyExitCriticalSection(enableInterrupts);
 301:Generated_Source\PSoC5/ADC.c **** 
 302:Generated_Source\PSoC5/ADC.c **** }
 303:Generated_Source\PSoC5/ADC.c **** 
 304:Generated_Source\PSoC5/ADC.c **** 
 305:Generated_Source\PSoC5/ADC.c **** /*******************************************************************************
 306:Generated_Source\PSoC5/ADC.c **** * Function Name: ADC_Start
 307:Generated_Source\PSoC5/ADC.c **** ********************************************************************************
 308:Generated_Source\PSoC5/ADC.c **** *
 309:Generated_Source\PSoC5/ADC.c **** * Summary:
 310:Generated_Source\PSoC5/ADC.c **** *  Performs all required initialization for this component and enables
 311:Generated_Source\PSoC5/ADC.c **** *  the power. It configure all the register the first time it is called.
 312:Generated_Source\PSoC5/ADC.c **** *  Subsequent calls of the Start function only enable the ADC and turn
 313:Generated_Source\PSoC5/ADC.c **** *  on the power. If multiple configurations are selected, it will
 314:Generated_Source\PSoC5/ADC.c **** *  configure the ADC for configuration 1 by default, unless the
 315:Generated_Source\PSoC5/ADC.c **** *  ADC_SelectConfiguration( ) function has been called to change
 316:Generated_Source\PSoC5/ADC.c **** *  the default setting.
ARM GAS  C:\Users\celua\AppData\Local\Temp\cc8imhxh.s 			page 7


 317:Generated_Source\PSoC5/ADC.c **** *
 318:Generated_Source\PSoC5/ADC.c **** * Parameters:
 319:Generated_Source\PSoC5/ADC.c **** *  None
 320:Generated_Source\PSoC5/ADC.c **** *
 321:Generated_Source\PSoC5/ADC.c **** * Return:
 322:Generated_Source\PSoC5/ADC.c **** *  None
 323:Generated_Source\PSoC5/ADC.c **** *
 324:Generated_Source\PSoC5/ADC.c **** * Global variables:
 325:Generated_Source\PSoC5/ADC.c **** *  ADC_initVar:  Used to check the initial configuration,
 326:Generated_Source\PSoC5/ADC.c **** *  modified when this function is called for the first time.
 327:Generated_Source\PSoC5/ADC.c **** *
 328:Generated_Source\PSoC5/ADC.c **** *******************************************************************************/
 329:Generated_Source\PSoC5/ADC.c **** void ADC_Start(void) 
 330:Generated_Source\PSoC5/ADC.c **** {
 331:Generated_Source\PSoC5/ADC.c ****     if(ADC_initVar == 0u)
 332:Generated_Source\PSoC5/ADC.c ****     {
 333:Generated_Source\PSoC5/ADC.c ****         if(ADC_started == 0u)
 334:Generated_Source\PSoC5/ADC.c ****         {
 335:Generated_Source\PSoC5/ADC.c ****             ADC_Init();
 336:Generated_Source\PSoC5/ADC.c ****         }
 337:Generated_Source\PSoC5/ADC.c ****         ADC_initVar = 1u;
 338:Generated_Source\PSoC5/ADC.c ****     }
 339:Generated_Source\PSoC5/ADC.c **** 
 340:Generated_Source\PSoC5/ADC.c ****     /* Enable the ADC */
 341:Generated_Source\PSoC5/ADC.c ****     ADC_Enable();
 342:Generated_Source\PSoC5/ADC.c **** }
 343:Generated_Source\PSoC5/ADC.c **** 
 344:Generated_Source\PSoC5/ADC.c **** 
 345:Generated_Source\PSoC5/ADC.c **** /*******************************************************************************
 346:Generated_Source\PSoC5/ADC.c **** * Function Name: ADC_Stop
 347:Generated_Source\PSoC5/ADC.c **** ********************************************************************************
 348:Generated_Source\PSoC5/ADC.c **** *
 349:Generated_Source\PSoC5/ADC.c **** * Summary:
 350:Generated_Source\PSoC5/ADC.c **** *  This function stops and powers down the ADC component and the internal
 351:Generated_Source\PSoC5/ADC.c **** *  clock if the external clock is not selected. If an external clock is
 352:Generated_Source\PSoC5/ADC.c **** *  used, it is up to the designer to power down the external clock it
 353:Generated_Source\PSoC5/ADC.c **** *  required.
 354:Generated_Source\PSoC5/ADC.c **** *
 355:Generated_Source\PSoC5/ADC.c **** * Parameters:
 356:Generated_Source\PSoC5/ADC.c **** *  None
 357:Generated_Source\PSoC5/ADC.c **** *
 358:Generated_Source\PSoC5/ADC.c **** * Return:
 359:Generated_Source\PSoC5/ADC.c **** *  None
 360:Generated_Source\PSoC5/ADC.c **** *
 361:Generated_Source\PSoC5/ADC.c **** *******************************************************************************/
 362:Generated_Source\PSoC5/ADC.c **** void ADC_Stop(void) 
 363:Generated_Source\PSoC5/ADC.c **** {
 364:Generated_Source\PSoC5/ADC.c ****     uint8 enableInterrupts;
 365:Generated_Source\PSoC5/ADC.c ****     enableInterrupts = CyEnterCriticalSection();
 366:Generated_Source\PSoC5/ADC.c **** 
 367:Generated_Source\PSoC5/ADC.c ****     /* Stop conversions */
 368:Generated_Source\PSoC5/ADC.c ****     ADC_DEC_CR_REG &= (uint8)~ADC_DEC_START_CONV;
 369:Generated_Source\PSoC5/ADC.c ****     ADC_DEC_SR_REG |=  ADC_DEC_INTR_CLEAR;
 370:Generated_Source\PSoC5/ADC.c **** 
 371:Generated_Source\PSoC5/ADC.c ****     /* Disable PRES, Disable power to VCMBUF0, REFBUF0 and REFBUF1,
 372:Generated_Source\PSoC5/ADC.c ****        enable PRES */
 373:Generated_Source\PSoC5/ADC.c ****     ADC_RESET_CR4_REG |= ADC_IGNORE_PRESA1;
ARM GAS  C:\Users\celua\AppData\Local\Temp\cc8imhxh.s 			page 8


 374:Generated_Source\PSoC5/ADC.c ****     ADC_RESET_CR5_REG |= ADC_IGNORE_PRESA2;
 375:Generated_Source\PSoC5/ADC.c **** 
 376:Generated_Source\PSoC5/ADC.c ****     ADC_DSM_CR17_REG &= (uint8)~(ADC_DSM_EN_BUF_VREF | ADC_DSM_EN_BUF_VCM);
 377:Generated_Source\PSoC5/ADC.c ****     ADC_DSM_REF0_REG &= (uint8)~ADC_DSM_EN_BUF_VREF_INN;
 378:Generated_Source\PSoC5/ADC.c **** 
 379:Generated_Source\PSoC5/ADC.c ****     /* Wait for 3 microseconds. */
 380:Generated_Source\PSoC5/ADC.c ****     CyDelayUs(ADC_PRES_DELAY_TIME);
 381:Generated_Source\PSoC5/ADC.c **** 
 382:Generated_Source\PSoC5/ADC.c ****     /* Enable the press circuit */
 383:Generated_Source\PSoC5/ADC.c ****     ADC_RESET_CR4_REG &= (uint8)~ADC_IGNORE_PRESA1;
 384:Generated_Source\PSoC5/ADC.c ****     ADC_RESET_CR5_REG &= (uint8)~ADC_IGNORE_PRESA2;
 385:Generated_Source\PSoC5/ADC.c **** 
 386:Generated_Source\PSoC5/ADC.c ****     /* Disable power to the ADC */
 387:Generated_Source\PSoC5/ADC.c ****     ADC_PWRMGR_DSM_REG &= (uint8)~ADC_ACT_PWR_DSM_EN;
 388:Generated_Source\PSoC5/ADC.c **** 
 389:Generated_Source\PSoC5/ADC.c ****     /* Disable power to Decimator block */
 390:Generated_Source\PSoC5/ADC.c ****     ADC_PWRMGR_DEC_REG &= (uint8)~ADC_ACT_PWR_DEC_EN;
 391:Generated_Source\PSoC5/ADC.c **** 
 392:Generated_Source\PSoC5/ADC.c ****     /* Disable alternative active power to the ADC */
 393:Generated_Source\PSoC5/ADC.c ****     ADC_STBY_PWRMGR_DEC_REG &= (uint8)~ADC_STBY_PWR_DEC_EN;
 394:Generated_Source\PSoC5/ADC.c ****     ADC_STBY_PWRMGR_DSM_REG &= (uint8)~ADC_STBY_PWR_DSM_EN;
 395:Generated_Source\PSoC5/ADC.c **** 
 396:Generated_Source\PSoC5/ADC.c ****    /* Disable negative pumps for DSM  */
 397:Generated_Source\PSoC5/ADC.c ****     ADC_PUMP_CR1_REG &= (uint8)~(ADC_PUMP_CR1_CLKSEL | ADC_PUMP_CR1_FORCE );
 398:Generated_Source\PSoC5/ADC.c **** 
 399:Generated_Source\PSoC5/ADC.c ****     /* This is only valid if there is an internal clock */
 400:Generated_Source\PSoC5/ADC.c ****     #if(ADC_DEFAULT_INTERNAL_CLK)
 401:Generated_Source\PSoC5/ADC.c ****         ADC_PWRMGR_CLK_REG &= (uint8)~ADC_ACT_PWR_CLK_EN;
 402:Generated_Source\PSoC5/ADC.c ****         ADC_STBY_PWRMGR_CLK_REG &= (uint8)~ADC_STBY_PWR_CLK_EN;
 403:Generated_Source\PSoC5/ADC.c ****     #endif /* ADC_DEFAULT_INTERNAL_CLK */
 404:Generated_Source\PSoC5/ADC.c **** 
 405:Generated_Source\PSoC5/ADC.c ****     /* Disable Modulator Chopping */
 406:Generated_Source\PSoC5/ADC.c ****     ADC_DSM_CR2_REG &= (uint8)~ADC_DSM_MOD_CHOP_EN;
 407:Generated_Source\PSoC5/ADC.c ****     /* Disable power to charge pump clock */
 408:Generated_Source\PSoC5/ADC.c ****     ADC_PWRMGR_CHARGE_PUMP_CLK_REG &= (uint8)~ADC_ACT_PWR_CHARGE_PUMP_CLK_EN;
 409:Generated_Source\PSoC5/ADC.c ****     ADC_STBY_PWRMGR_CHARGE_PUMP_CLK_REG &= (uint8)~ADC_STBY_PWR_CHARGE_PUMP_CLK_EN;
 410:Generated_Source\PSoC5/ADC.c ****     
 411:Generated_Source\PSoC5/ADC.c ****     CyExitCriticalSection(enableInterrupts);
 412:Generated_Source\PSoC5/ADC.c **** }
 413:Generated_Source\PSoC5/ADC.c **** 
 414:Generated_Source\PSoC5/ADC.c **** 
 415:Generated_Source\PSoC5/ADC.c **** /*******************************************************************************
 416:Generated_Source\PSoC5/ADC.c **** * Function Name: ADC_SetBufferGain
 417:Generated_Source\PSoC5/ADC.c **** ********************************************************************************
 418:Generated_Source\PSoC5/ADC.c **** *
 419:Generated_Source\PSoC5/ADC.c **** * Summary:
 420:Generated_Source\PSoC5/ADC.c **** *  Sets input buffer gain.
 421:Generated_Source\PSoC5/ADC.c **** *
 422:Generated_Source\PSoC5/ADC.c **** * Parameters:
 423:Generated_Source\PSoC5/ADC.c **** *  gain:  Two bit value to select a gain of 1, 2, 4, or 8.
 424:Generated_Source\PSoC5/ADC.c **** *
 425:Generated_Source\PSoC5/ADC.c **** * Return:
 426:Generated_Source\PSoC5/ADC.c **** *  None
 427:Generated_Source\PSoC5/ADC.c **** *
 428:Generated_Source\PSoC5/ADC.c **** *******************************************************************************/
 429:Generated_Source\PSoC5/ADC.c **** void ADC_SetBufferGain(uint8 gain) 
 430:Generated_Source\PSoC5/ADC.c **** {
ARM GAS  C:\Users\celua\AppData\Local\Temp\cc8imhxh.s 			page 9


 431:Generated_Source\PSoC5/ADC.c ****     uint8 tmpReg;
 432:Generated_Source\PSoC5/ADC.c ****     tmpReg = ADC_DSM_BUF1_REG & (uint8)~ADC_DSM_GAIN_MASK;
 433:Generated_Source\PSoC5/ADC.c ****     tmpReg |= (uint8)(gain << ADC_DSM_GAIN_SHIFT) & ADC_DSM_GAIN_MASK;
 434:Generated_Source\PSoC5/ADC.c ****     ADC_DSM_BUF1_REG = tmpReg;
 435:Generated_Source\PSoC5/ADC.c **** }
 436:Generated_Source\PSoC5/ADC.c **** 
 437:Generated_Source\PSoC5/ADC.c **** 
 438:Generated_Source\PSoC5/ADC.c **** /*******************************************************************************
 439:Generated_Source\PSoC5/ADC.c **** * Function Name: ADC_SetCoherency
 440:Generated_Source\PSoC5/ADC.c **** ********************************************************************************
 441:Generated_Source\PSoC5/ADC.c **** *
 442:Generated_Source\PSoC5/ADC.c **** * Summary:
 443:Generated_Source\PSoC5/ADC.c **** *  This function allows the user to change which of the ADC's 3 word
 444:Generated_Source\PSoC5/ADC.c **** *  result will trigger a coherency unlock. The ADC's result will not be
 445:Generated_Source\PSoC5/ADC.c **** *  updated until the set byte is read either by the ADC or DMA. 
 446:Generated_Source\PSoC5/ADC.c **** *  By default the LSB is the coherency byte for right alignment data format. 
 447:Generated_Source\PSoC5/ADC.c **** *  The middle or high byte is set automatically depend on left alignment 
 448:Generated_Source\PSoC5/ADC.c **** *  configuration for DMA data transfer.
 449:Generated_Source\PSoC5/ADC.c **** *  If DMA or if a custom API requires different byte to be read the last,
 450:Generated_Source\PSoC5/ADC.c **** *  this API should be used to set the last byte of the ADC result that is read. 
 451:Generated_Source\PSoC5/ADC.c **** *  If a multibyte read is performed either by DMA or the ARM processor, the
 452:Generated_Source\PSoC5/ADC.c **** *  coherency can be set to any byte in the last word read.
 453:Generated_Source\PSoC5/ADC.c **** *
 454:Generated_Source\PSoC5/ADC.c **** * Parameters:
 455:Generated_Source\PSoC5/ADC.c **** *  coherency:  Two bit value to set the coherency bit.
 456:Generated_Source\PSoC5/ADC.c **** *           00-Coherency checking off
 457:Generated_Source\PSoC5/ADC.c **** *           01-low byte is key byte
 458:Generated_Source\PSoC5/ADC.c **** *           02-middle byte is the key byte
 459:Generated_Source\PSoC5/ADC.c **** *           03-high byte is the key byte
 460:Generated_Source\PSoC5/ADC.c **** *
 461:Generated_Source\PSoC5/ADC.c **** * Return:
 462:Generated_Source\PSoC5/ADC.c **** *  None
 463:Generated_Source\PSoC5/ADC.c **** *
 464:Generated_Source\PSoC5/ADC.c **** *******************************************************************************/
 465:Generated_Source\PSoC5/ADC.c **** void ADC_SetCoherency(uint8 coherency) 
 466:Generated_Source\PSoC5/ADC.c **** {
 467:Generated_Source\PSoC5/ADC.c ****     uint8 tmpReg;
 468:Generated_Source\PSoC5/ADC.c **** 
 469:Generated_Source\PSoC5/ADC.c ****     tmpReg = ADC_DEC_COHER_REG & (uint8)~ADC_DEC_SAMP_KEY_MASK;
 470:Generated_Source\PSoC5/ADC.c ****     tmpReg |= coherency & ADC_DEC_SAMP_KEY_MASK;
 471:Generated_Source\PSoC5/ADC.c ****     ADC_DEC_COHER_REG = tmpReg;
 472:Generated_Source\PSoC5/ADC.c **** }
 473:Generated_Source\PSoC5/ADC.c **** 
 474:Generated_Source\PSoC5/ADC.c **** 
 475:Generated_Source\PSoC5/ADC.c **** /*******************************************************************************
 476:Generated_Source\PSoC5/ADC.c **** * Function Name: ADC_SetGCOR
 477:Generated_Source\PSoC5/ADC.c **** ********************************************************************************
 478:Generated_Source\PSoC5/ADC.c **** *
 479:Generated_Source\PSoC5/ADC.c **** * Summary:
 480:Generated_Source\PSoC5/ADC.c **** *  Calculates a new GCOR value and writes it into the GCOR register. 
 481:Generated_Source\PSoC5/ADC.c **** *  The GCOR value is a 16-bit value that represents a gain of 0 to 2. 
 482:Generated_Source\PSoC5/ADC.c **** *  The ADC result is multiplied by this value before it is placed in the ADC 
 483:Generated_Source\PSoC5/ADC.c **** *  output registers. The numerical format for the GCOR value is:
 484:Generated_Source\PSoC5/ADC.c **** *  0x0000 -> 0.000
 485:Generated_Source\PSoC5/ADC.c **** *  0x8000 -> 1.000
 486:Generated_Source\PSoC5/ADC.c **** *  0xFFFF -> 1.99997
 487:Generated_Source\PSoC5/ADC.c **** *  When executing the function, the old GCOR value is multiplied by
ARM GAS  C:\Users\celua\AppData\Local\Temp\cc8imhxh.s 			page 10


 488:Generated_Source\PSoC5/ADC.c **** *  gainAdjust and reloaded into the GCOR register.
 489:Generated_Source\PSoC5/ADC.c **** *
 490:Generated_Source\PSoC5/ADC.c **** * Parameters:
 491:Generated_Source\PSoC5/ADC.c **** *  gainAdjust:  floating point value to set GCOR registers.
 492:Generated_Source\PSoC5/ADC.c **** *
 493:Generated_Source\PSoC5/ADC.c **** * Return:
 494:Generated_Source\PSoC5/ADC.c **** *  uint8: 0 - if GCOR value is within the expected range.
 495:Generated_Source\PSoC5/ADC.c **** *         1 - the correction value is outside GCOR value range of
 496:Generated_Source\PSoC5/ADC.c **** *             0.00 to 1.9999.
 497:Generated_Source\PSoC5/ADC.c **** *
 498:Generated_Source\PSoC5/ADC.c **** * Side Effects:  The GVAL register is set to the amount of valid bits in the
 499:Generated_Source\PSoC5/ADC.c **** *                GCOR  register minus one. If GVAL is 15 (0x0F), all 16 bits
 500:Generated_Source\PSoC5/ADC.c **** *                of the GCOR registers will be valid. If for example GVAL is
 501:Generated_Source\PSoC5/ADC.c **** *                11 (0x0B) only 12 bits will be valid. The least 4 bits will
 502:Generated_Source\PSoC5/ADC.c **** *                be lost when the GCOR value is shifted 4 places to the right.
 503:Generated_Source\PSoC5/ADC.c **** *
 504:Generated_Source\PSoC5/ADC.c **** ******************************************************************************/
 505:Generated_Source\PSoC5/ADC.c **** uint8 ADC_SetGCOR(float32 gainAdjust) 
 506:Generated_Source\PSoC5/ADC.c **** {
 507:Generated_Source\PSoC5/ADC.c ****     uint16 tmpReg;
 508:Generated_Source\PSoC5/ADC.c ****     uint8 status;
 509:Generated_Source\PSoC5/ADC.c ****     float32 tmpValue;
 510:Generated_Source\PSoC5/ADC.c **** 
 511:Generated_Source\PSoC5/ADC.c ****     tmpReg = ADC_gcor[ADC_Config - 1u].gcor;
 512:Generated_Source\PSoC5/ADC.c ****     tmpValue = ((float32)tmpReg / (float32)ADC_IDEAL_GAIN_CONST);
 513:Generated_Source\PSoC5/ADC.c ****     tmpValue = tmpValue * gainAdjust;
 514:Generated_Source\PSoC5/ADC.c **** 
 515:Generated_Source\PSoC5/ADC.c ****     if (tmpValue > 1.9999)
 516:Generated_Source\PSoC5/ADC.c ****     {
 517:Generated_Source\PSoC5/ADC.c ****         status = 1u;
 518:Generated_Source\PSoC5/ADC.c ****     }
 519:Generated_Source\PSoC5/ADC.c ****     else
 520:Generated_Source\PSoC5/ADC.c ****     {
 521:Generated_Source\PSoC5/ADC.c ****         tmpValue *= (float32)ADC_IDEAL_GAIN_CONST;
 522:Generated_Source\PSoC5/ADC.c **** 		tmpReg = (uint16)tmpValue;
 523:Generated_Source\PSoC5/ADC.c ****         CY_SET_REG16(ADC_DEC_GCOR_16B_PTR, tmpReg);
 524:Generated_Source\PSoC5/ADC.c ****         /* Update gain array to be used by SelectConfiguration() API */
 525:Generated_Source\PSoC5/ADC.c ****        ADC_gcor[ADC_Config - 1u].gcor = tmpReg;
 526:Generated_Source\PSoC5/ADC.c **** 
 527:Generated_Source\PSoC5/ADC.c ****         status = 0u;
 528:Generated_Source\PSoC5/ADC.c **** 
 529:Generated_Source\PSoC5/ADC.c ****     }
 530:Generated_Source\PSoC5/ADC.c ****     return(status);
 531:Generated_Source\PSoC5/ADC.c **** }
 532:Generated_Source\PSoC5/ADC.c **** 
 533:Generated_Source\PSoC5/ADC.c **** 
 534:Generated_Source\PSoC5/ADC.c **** /******************************************************************************
 535:Generated_Source\PSoC5/ADC.c **** * Function Name: ADC_ReadGCOR
 536:Generated_Source\PSoC5/ADC.c **** *******************************************************************************
 537:Generated_Source\PSoC5/ADC.c **** *
 538:Generated_Source\PSoC5/ADC.c **** * Summary:
 539:Generated_Source\PSoC5/ADC.c **** *  This API returns the current GCOR register value, normalized based on the
 540:Generated_Source\PSoC5/ADC.c **** *  GVAL register settings.
 541:Generated_Source\PSoC5/ADC.c **** *  For example, if the GCOR value is 0x0812 and the GVAL register is set to 
 542:Generated_Source\PSoC5/ADC.c **** *  11 (0x0B) then the returned value will be shifted by for bits to the left.
 543:Generated_Source\PSoC5/ADC.c **** *  (Actual GCOR value = 0x0812, returned value = 0x8120)
 544:Generated_Source\PSoC5/ADC.c **** *
ARM GAS  C:\Users\celua\AppData\Local\Temp\cc8imhxh.s 			page 11


 545:Generated_Source\PSoC5/ADC.c **** * Parameters:
 546:Generated_Source\PSoC5/ADC.c **** *  None
 547:Generated_Source\PSoC5/ADC.c **** *
 548:Generated_Source\PSoC5/ADC.c **** * Return:
 549:Generated_Source\PSoC5/ADC.c **** *  uint16:  Normalized GCOR value.
 550:Generated_Source\PSoC5/ADC.c **** *
 551:Generated_Source\PSoC5/ADC.c **** *******************************************************************************/
 552:Generated_Source\PSoC5/ADC.c **** uint16 ADC_ReadGCOR(void) 
 553:Generated_Source\PSoC5/ADC.c **** {
 554:Generated_Source\PSoC5/ADC.c ****     uint8 gValue;
 555:Generated_Source\PSoC5/ADC.c ****     uint16 gcorValue;
 556:Generated_Source\PSoC5/ADC.c **** 
 557:Generated_Source\PSoC5/ADC.c ****     gValue = ADC_DEC_GVAL_REG;
 558:Generated_Source\PSoC5/ADC.c ****     gcorValue = CY_GET_REG16(ADC_DEC_GCOR_16B_PTR);
 559:Generated_Source\PSoC5/ADC.c **** 
 560:Generated_Source\PSoC5/ADC.c ****     if (gValue < ADC_MAX_GVAL)
 561:Generated_Source\PSoC5/ADC.c ****     {
 562:Generated_Source\PSoC5/ADC.c ****         gcorValue <<= ADC_MAX_GVAL - gValue;
 563:Generated_Source\PSoC5/ADC.c ****     }
 564:Generated_Source\PSoC5/ADC.c **** 
 565:Generated_Source\PSoC5/ADC.c ****     return gcorValue;
 566:Generated_Source\PSoC5/ADC.c **** }
 567:Generated_Source\PSoC5/ADC.c **** 
 568:Generated_Source\PSoC5/ADC.c **** 
 569:Generated_Source\PSoC5/ADC.c **** /*******************************************************************************
 570:Generated_Source\PSoC5/ADC.c **** * Function Name: ADC_StartConvert
 571:Generated_Source\PSoC5/ADC.c **** ********************************************************************************
 572:Generated_Source\PSoC5/ADC.c **** *
 573:Generated_Source\PSoC5/ADC.c **** * Summary:
 574:Generated_Source\PSoC5/ADC.c **** *  Forces the ADC to initiate a conversion. If in the "Single Sample"
 575:Generated_Source\PSoC5/ADC.c **** *  mode, one conversion will be performed then the ADC will halt. If in
 576:Generated_Source\PSoC5/ADC.c **** *  one of the other three conversion modes, the ADC will run
 577:Generated_Source\PSoC5/ADC.c **** *  continuously until the ADC_Stop() or ADC_StopConvert() is called.
 578:Generated_Source\PSoC5/ADC.c **** *
 579:Generated_Source\PSoC5/ADC.c **** * Parameters:
 580:Generated_Source\PSoC5/ADC.c **** *  None
 581:Generated_Source\PSoC5/ADC.c **** *
 582:Generated_Source\PSoC5/ADC.c **** * Return:
 583:Generated_Source\PSoC5/ADC.c **** *  None
 584:Generated_Source\PSoC5/ADC.c **** *
 585:Generated_Source\PSoC5/ADC.c **** *******************************************************************************/
 586:Generated_Source\PSoC5/ADC.c **** void ADC_StartConvert(void) 
 587:Generated_Source\PSoC5/ADC.c **** {
 588:Generated_Source\PSoC5/ADC.c ****     /* Start the conversion */
 589:Generated_Source\PSoC5/ADC.c ****     ADC_DEC_CR_REG |= ADC_DEC_START_CONV;
 590:Generated_Source\PSoC5/ADC.c **** }
 591:Generated_Source\PSoC5/ADC.c **** 
 592:Generated_Source\PSoC5/ADC.c **** 
 593:Generated_Source\PSoC5/ADC.c **** /*******************************************************************************
 594:Generated_Source\PSoC5/ADC.c **** * Function Name: ADC_StopConvert
 595:Generated_Source\PSoC5/ADC.c **** ********************************************************************************
 596:Generated_Source\PSoC5/ADC.c **** *
 597:Generated_Source\PSoC5/ADC.c **** * Summary:
 598:Generated_Source\PSoC5/ADC.c **** *  Forces the ADC to stop all conversions. If the ADC is in the middle of a
 599:Generated_Source\PSoC5/ADC.c **** *  conversion, the ADC will be reset and not provide a result for that partial
 600:Generated_Source\PSoC5/ADC.c **** *  conversion.
 601:Generated_Source\PSoC5/ADC.c **** *
ARM GAS  C:\Users\celua\AppData\Local\Temp\cc8imhxh.s 			page 12


 602:Generated_Source\PSoC5/ADC.c **** * Parameters:
 603:Generated_Source\PSoC5/ADC.c **** *  None
 604:Generated_Source\PSoC5/ADC.c **** *
 605:Generated_Source\PSoC5/ADC.c **** * Return:
 606:Generated_Source\PSoC5/ADC.c **** *  None
 607:Generated_Source\PSoC5/ADC.c **** *
 608:Generated_Source\PSoC5/ADC.c **** *******************************************************************************/
 609:Generated_Source\PSoC5/ADC.c **** void ADC_StopConvert(void) 
 610:Generated_Source\PSoC5/ADC.c **** {
 611:Generated_Source\PSoC5/ADC.c ****     /* Stop all conversions */
 612:Generated_Source\PSoC5/ADC.c ****     ADC_DEC_CR_REG &= (uint8)~ADC_DEC_START_CONV;
 613:Generated_Source\PSoC5/ADC.c **** }
 614:Generated_Source\PSoC5/ADC.c **** 
 615:Generated_Source\PSoC5/ADC.c **** 
 616:Generated_Source\PSoC5/ADC.c **** /*******************************************************************************
 617:Generated_Source\PSoC5/ADC.c **** * Function Name: ADC_IsEndConversion
 618:Generated_Source\PSoC5/ADC.c **** ********************************************************************************
 619:Generated_Source\PSoC5/ADC.c **** *
 620:Generated_Source\PSoC5/ADC.c **** * Summary:
 621:Generated_Source\PSoC5/ADC.c **** *  Checks the status that the most recently started conversion has completed.
 622:Generated_Source\PSoC5/ADC.c **** *  The status is cleared by any of ADC_GetResult8(), ADC_GetResult16() or 
 623:Generated_Source\PSoC5/ADC.c **** *  ADC_GetResult32() API.
 624:Generated_Source\PSoC5/ADC.c **** *  This function provides the programmer with two options. In one mode this 
 625:Generated_Source\PSoC5/ADC.c **** *  function immediately returns with the conversion status. In the other mode,
 626:Generated_Source\PSoC5/ADC.c **** *  the function does not return (blocking) until the conversion has completed.
 627:Generated_Source\PSoC5/ADC.c **** *
 628:Generated_Source\PSoC5/ADC.c **** * Parameters:
 629:Generated_Source\PSoC5/ADC.c **** *  retMode: Check conversion return mode. See the following table for options.
 630:Generated_Source\PSoC5/ADC.c **** *   ADC_RETURN_STATUS -   Immediately returns conversion result
 631:Generated_Source\PSoC5/ADC.c **** *                                      status.
 632:Generated_Source\PSoC5/ADC.c **** *   ADC_WAIT_FOR_RESULT - Does not return until ADC conversion
 633:Generated_Source\PSoC5/ADC.c **** *                                      is complete.
 634:Generated_Source\PSoC5/ADC.c **** *
 635:Generated_Source\PSoC5/ADC.c **** * Return:
 636:Generated_Source\PSoC5/ADC.c **** *  If a nonzero value is returned, the last conversion has completed.
 637:Generated_Source\PSoC5/ADC.c **** *  If the returned value is zero, the ADC is still calculating the last result.
 638:Generated_Source\PSoC5/ADC.c **** *
 639:Generated_Source\PSoC5/ADC.c **** * Global variables:
 640:Generated_Source\PSoC5/ADC.c **** *  ADC_convDone:  Used to check whether conversion is complete
 641:Generated_Source\PSoC5/ADC.c **** *  or not for single sample mode with resolution is above 16
 642:Generated_Source\PSoC5/ADC.c **** *
 643:Generated_Source\PSoC5/ADC.c **** *******************************************************************************/
 644:Generated_Source\PSoC5/ADC.c **** uint8 ADC_IsEndConversion(uint8 retMode) 
 645:Generated_Source\PSoC5/ADC.c **** {
 646:Generated_Source\PSoC5/ADC.c ****     uint8 status;
 647:Generated_Source\PSoC5/ADC.c **** 
 648:Generated_Source\PSoC5/ADC.c ****     do
 649:Generated_Source\PSoC5/ADC.c ****     {
 650:Generated_Source\PSoC5/ADC.c ****         /* Check for stop convert if conversion mode is Single Sample with
 651:Generated_Source\PSoC5/ADC.c ****         *   resolution above 16 bit
 652:Generated_Source\PSoC5/ADC.c ****         */
 653:Generated_Source\PSoC5/ADC.c ****         if(ADC_stopConversion != 0u)
 654:Generated_Source\PSoC5/ADC.c ****         {
 655:Generated_Source\PSoC5/ADC.c ****             status = ADC_convDone;
 656:Generated_Source\PSoC5/ADC.c ****         }
 657:Generated_Source\PSoC5/ADC.c ****         else
 658:Generated_Source\PSoC5/ADC.c ****         {
ARM GAS  C:\Users\celua\AppData\Local\Temp\cc8imhxh.s 			page 13


 659:Generated_Source\PSoC5/ADC.c ****             status = ADC_DEC_SR_REG & ADC_DEC_CONV_DONE;
 660:Generated_Source\PSoC5/ADC.c ****         }
 661:Generated_Source\PSoC5/ADC.c ****     }while((status != ADC_DEC_CONV_DONE) && (retMode == ADC_WAIT_FOR_RESULT));
 662:Generated_Source\PSoC5/ADC.c **** 
 663:Generated_Source\PSoC5/ADC.c ****     return(status);
 664:Generated_Source\PSoC5/ADC.c **** }
 665:Generated_Source\PSoC5/ADC.c **** 
 666:Generated_Source\PSoC5/ADC.c **** 
 667:Generated_Source\PSoC5/ADC.c **** /*******************************************************************************
 668:Generated_Source\PSoC5/ADC.c **** * Function Name: ADC_GetResult8
 669:Generated_Source\PSoC5/ADC.c **** ********************************************************************************
 670:Generated_Source\PSoC5/ADC.c **** *
 671:Generated_Source\PSoC5/ADC.c **** * Summary:
 672:Generated_Source\PSoC5/ADC.c **** *  This function returns the result of an 8-bit conversion. If the
 673:Generated_Source\PSoC5/ADC.c **** *  resolution is set greater than 8-bits, the LSB of the result will be
 674:Generated_Source\PSoC5/ADC.c **** *  returned. When the ADC is configured for 8-bit single ended mode,
 675:Generated_Source\PSoC5/ADC.c **** *  the ADC_GetResult16() function should be used instead. This
 676:Generated_Source\PSoC5/ADC.c **** *  function returns only signed 8-bit values. The maximum positive
 677:Generated_Source\PSoC5/ADC.c **** *  signed 8-bit value is 127, but in singled ended 8-bit mode, the
 678:Generated_Source\PSoC5/ADC.c **** *  maximum positive value is 255.
 679:Generated_Source\PSoC5/ADC.c **** *
 680:Generated_Source\PSoC5/ADC.c **** * Parameters:
 681:Generated_Source\PSoC5/ADC.c **** *  None
 682:Generated_Source\PSoC5/ADC.c **** *
 683:Generated_Source\PSoC5/ADC.c **** * Return:
 684:Generated_Source\PSoC5/ADC.c **** *  int8: The LSB of the last ADC conversion.
 685:Generated_Source\PSoC5/ADC.c **** *
 686:Generated_Source\PSoC5/ADC.c **** * Global variables:
 687:Generated_Source\PSoC5/ADC.c **** *  ADC_convDone:  Cleared in single sample mode with resolution
 688:Generated_Source\PSoC5/ADC.c **** *                              above 16 bits
 689:Generated_Source\PSoC5/ADC.c **** *
 690:Generated_Source\PSoC5/ADC.c **** *******************************************************************************/
 691:Generated_Source\PSoC5/ADC.c **** int8 ADC_GetResult8( void ) 
 692:Generated_Source\PSoC5/ADC.c **** {
 693:Generated_Source\PSoC5/ADC.c ****     int8 result;
 694:Generated_Source\PSoC5/ADC.c ****     uint8 coherency;
 695:Generated_Source\PSoC5/ADC.c **** 
 696:Generated_Source\PSoC5/ADC.c ****     /* Read active coherency configuration */
 697:Generated_Source\PSoC5/ADC.c ****     coherency = ADC_DEC_COHER_REG & ADC_DEC_SAMP_KEY_MASK;
 698:Generated_Source\PSoC5/ADC.c **** 
 699:Generated_Source\PSoC5/ADC.c ****     result = (int8)ADC_DEC_SAMP_REG;
 700:Generated_Source\PSoC5/ADC.c **** 
 701:Generated_Source\PSoC5/ADC.c ****     if(coherency == ADC_DEC_SAMP_KEY_MID)
 702:Generated_Source\PSoC5/ADC.c ****     {   /* Dummy read of the middle byte to unlock the coherency */
 703:Generated_Source\PSoC5/ADC.c ****         (void)ADC_DEC_SAMPM_REG;
 704:Generated_Source\PSoC5/ADC.c ****     }
 705:Generated_Source\PSoC5/ADC.c ****     else  if(coherency == ADC_DEC_SAMP_KEY_HIGH)
 706:Generated_Source\PSoC5/ADC.c ****     {   /* Dummy read of the MSB byte to unlock the coherency */
 707:Generated_Source\PSoC5/ADC.c ****         (void)ADC_DEC_SAMPH_REG;
 708:Generated_Source\PSoC5/ADC.c ****     }
 709:Generated_Source\PSoC5/ADC.c ****     else /*No action required for other coherency */
 710:Generated_Source\PSoC5/ADC.c ****     {
 711:Generated_Source\PSoC5/ADC.c ****     }
 712:Generated_Source\PSoC5/ADC.c ****     /* Clear conversion complete status in Single Sample mode with resolution above 16 bit */
 713:Generated_Source\PSoC5/ADC.c ****     if(ADC_stopConversion != 0u)
 714:Generated_Source\PSoC5/ADC.c ****     {
 715:Generated_Source\PSoC5/ADC.c ****         ADC_convDone = 0u;
ARM GAS  C:\Users\celua\AppData\Local\Temp\cc8imhxh.s 			page 14


 716:Generated_Source\PSoC5/ADC.c ****     }
 717:Generated_Source\PSoC5/ADC.c ****     return (result);
 718:Generated_Source\PSoC5/ADC.c **** }
 719:Generated_Source\PSoC5/ADC.c **** 
 720:Generated_Source\PSoC5/ADC.c **** 
 721:Generated_Source\PSoC5/ADC.c **** /*******************************************************************************
 722:Generated_Source\PSoC5/ADC.c **** * Function Name: ADC_GetResult16
 723:Generated_Source\PSoC5/ADC.c **** ********************************************************************************
 724:Generated_Source\PSoC5/ADC.c **** *
 725:Generated_Source\PSoC5/ADC.c **** * Summary:
 726:Generated_Source\PSoC5/ADC.c **** *  Returns a 16-bit result for a conversion with a result that has a
 727:Generated_Source\PSoC5/ADC.c **** *  resolution of 8 to 16 bits. If the resolution is set greater than 16-bits,
 728:Generated_Source\PSoC5/ADC.c **** *  it will return the 16 least significant bits of the result. When the ADC
 729:Generated_Source\PSoC5/ADC.c **** *  is configured for 16-bit single ended mode, the ADC_GetResult32()
 730:Generated_Source\PSoC5/ADC.c **** *  function should be used instead. This function returns only signed
 731:Generated_Source\PSoC5/ADC.c **** *  16-bit result, which allows a maximum positive value of 32767, not 65535.
 732:Generated_Source\PSoC5/ADC.c **** *  This function supports different coherency settings.
 733:Generated_Source\PSoC5/ADC.c **** *
 734:Generated_Source\PSoC5/ADC.c **** * Parameters:
 735:Generated_Source\PSoC5/ADC.c **** *   void
 736:Generated_Source\PSoC5/ADC.c **** *
 737:Generated_Source\PSoC5/ADC.c **** * Return:
 738:Generated_Source\PSoC5/ADC.c **** *  int16:  ADC result.
 739:Generated_Source\PSoC5/ADC.c **** *
 740:Generated_Source\PSoC5/ADC.c **** * Global variables:
 741:Generated_Source\PSoC5/ADC.c **** *  ADC_convDone:  Cleared in single sample mode with resolution
 742:Generated_Source\PSoC5/ADC.c **** *                              above 16 bits
 743:Generated_Source\PSoC5/ADC.c **** *
 744:Generated_Source\PSoC5/ADC.c **** *******************************************************************************/
 745:Generated_Source\PSoC5/ADC.c **** int16 ADC_GetResult16(void) 
 746:Generated_Source\PSoC5/ADC.c **** {
 747:Generated_Source\PSoC5/ADC.c ****     uint16 result;
 748:Generated_Source\PSoC5/ADC.c ****     uint8 coherency;
 749:Generated_Source\PSoC5/ADC.c **** 
 750:Generated_Source\PSoC5/ADC.c ****     /* Read active coherency configuration */
 751:Generated_Source\PSoC5/ADC.c ****     coherency = ADC_DEC_COHER_REG & ADC_DEC_SAMP_KEY_MASK;
 752:Generated_Source\PSoC5/ADC.c **** 
 753:Generated_Source\PSoC5/ADC.c ****     if(coherency <= ADC_DEC_SAMP_KEY_LOW)
 754:Generated_Source\PSoC5/ADC.c ****     {   /*  Use default method to read result registers i.e. LSB byte read at the end*/
 755:Generated_Source\PSoC5/ADC.c ****         #if (CY_PSOC3)
 756:Generated_Source\PSoC5/ADC.c ****             result = ADC_DEC_SAMPM_REG;
 757:Generated_Source\PSoC5/ADC.c ****             result = (result << 8u) | ADC_DEC_SAMP_REG;
 758:Generated_Source\PSoC5/ADC.c ****         #else
 759:Generated_Source\PSoC5/ADC.c ****             result = (CY_GET_REG16(ADC_DEC_SAMP_16B_PTR));
 760:Generated_Source\PSoC5/ADC.c ****         #endif /* CY_PSOC3 */
 761:Generated_Source\PSoC5/ADC.c ****     }
 762:Generated_Source\PSoC5/ADC.c ****     else /* MID or HIGH */
 763:Generated_Source\PSoC5/ADC.c ****     {   /* Read middle byte at the end */
 764:Generated_Source\PSoC5/ADC.c ****         #if (CY_PSOC3)
 765:Generated_Source\PSoC5/ADC.c ****             result = (CY_GET_REG16(ADC_DEC_SAMP_16B_PTR));
 766:Generated_Source\PSoC5/ADC.c ****         #else
 767:Generated_Source\PSoC5/ADC.c ****             result = ADC_DEC_SAMP_REG;
 768:Generated_Source\PSoC5/ADC.c ****             result |=  (uint16)((uint16)ADC_DEC_SAMPM_REG << 8u);
 769:Generated_Source\PSoC5/ADC.c ****         #endif /* CY_PSOC3 */
 770:Generated_Source\PSoC5/ADC.c ****         if(coherency == ADC_DEC_SAMP_KEY_HIGH)
 771:Generated_Source\PSoC5/ADC.c ****         {   /* Dummy read of the MSB byte to unlock the coherency */
 772:Generated_Source\PSoC5/ADC.c ****             (void)ADC_DEC_SAMPH_REG;
ARM GAS  C:\Users\celua\AppData\Local\Temp\cc8imhxh.s 			page 15


 773:Generated_Source\PSoC5/ADC.c ****         }
 774:Generated_Source\PSoC5/ADC.c ****     }
 775:Generated_Source\PSoC5/ADC.c ****     /* Clear conversion complete status in Single Sample mode with resolution above 16 bit */
 776:Generated_Source\PSoC5/ADC.c ****     if(ADC_stopConversion != 0u)
 777:Generated_Source\PSoC5/ADC.c ****     {
 778:Generated_Source\PSoC5/ADC.c ****         ADC_convDone = 0u;
 779:Generated_Source\PSoC5/ADC.c ****     }
 780:Generated_Source\PSoC5/ADC.c **** 
 781:Generated_Source\PSoC5/ADC.c ****     return ((int16)result);
 782:Generated_Source\PSoC5/ADC.c **** }
 783:Generated_Source\PSoC5/ADC.c **** 
 784:Generated_Source\PSoC5/ADC.c **** 
 785:Generated_Source\PSoC5/ADC.c **** /*******************************************************************************
 786:Generated_Source\PSoC5/ADC.c **** * Function Name: ADC_GetResult32
 787:Generated_Source\PSoC5/ADC.c **** ********************************************************************************
 788:Generated_Source\PSoC5/ADC.c **** *
 789:Generated_Source\PSoC5/ADC.c **** * Summary:
 790:Generated_Source\PSoC5/ADC.c **** *  Returns a 32-bit result for a conversion with a result that has a
 791:Generated_Source\PSoC5/ADC.c **** *  resolution of 8 to 20 bits.
 792:Generated_Source\PSoC5/ADC.c **** *  This function supports different coherency settings.
 793:Generated_Source\PSoC5/ADC.c **** *
 794:Generated_Source\PSoC5/ADC.c **** * Parameters:
 795:Generated_Source\PSoC5/ADC.c **** *  None
 796:Generated_Source\PSoC5/ADC.c **** *
 797:Generated_Source\PSoC5/ADC.c **** * Return:
 798:Generated_Source\PSoC5/ADC.c **** *  int32: Result of the last ADC conversion.
 799:Generated_Source\PSoC5/ADC.c **** *
 800:Generated_Source\PSoC5/ADC.c **** * Global variables:
 801:Generated_Source\PSoC5/ADC.c **** *  ADC_convDone:  Cleared in single sample mode with resolution
 802:Generated_Source\PSoC5/ADC.c **** *                              above 16 bits
 803:Generated_Source\PSoC5/ADC.c **** *
 804:Generated_Source\PSoC5/ADC.c **** *******************************************************************************/
 805:Generated_Source\PSoC5/ADC.c **** int32 ADC_GetResult32(void) 
 806:Generated_Source\PSoC5/ADC.c **** {
 807:Generated_Source\PSoC5/ADC.c ****     uint32 result;
 808:Generated_Source\PSoC5/ADC.c ****     uint8 coherency;
 809:Generated_Source\PSoC5/ADC.c ****     #if (CY_PSOC3)
 810:Generated_Source\PSoC5/ADC.c **** 	    uint16 tmp;
 811:Generated_Source\PSoC5/ADC.c ****     #endif /* CY_PSOC3 */
 812:Generated_Source\PSoC5/ADC.c **** 
 813:Generated_Source\PSoC5/ADC.c ****     /* Read active coherency configuration */
 814:Generated_Source\PSoC5/ADC.c ****     coherency = ADC_DEC_COHER_REG & ADC_DEC_SAMP_KEY_MASK;
 815:Generated_Source\PSoC5/ADC.c **** 
 816:Generated_Source\PSoC5/ADC.c ****     if(coherency <= ADC_DEC_SAMP_KEY_LOW)
 817:Generated_Source\PSoC5/ADC.c ****     {   /*  Use default method to read result registers i.e. LSB byte read at the end*/
 818:Generated_Source\PSoC5/ADC.c ****         #if (CY_PSOC3)
 819:Generated_Source\PSoC5/ADC.c ****             result = ADC_DEC_SAMPH_REG;
 820:Generated_Source\PSoC5/ADC.c ****             if((result & 0x80u) != 0u)
 821:Generated_Source\PSoC5/ADC.c ****             {   /* Sign extend */
 822:Generated_Source\PSoC5/ADC.c ****                 result |= 0xFF00u;
 823:Generated_Source\PSoC5/ADC.c ****             }
 824:Generated_Source\PSoC5/ADC.c ****             result = (result << 8u) | ADC_DEC_SAMPM_REG;
 825:Generated_Source\PSoC5/ADC.c ****             result = (result << 8u) | ADC_DEC_SAMP_REG;
 826:Generated_Source\PSoC5/ADC.c ****         #else
 827:Generated_Source\PSoC5/ADC.c ****             result = CY_GET_REG16(ADC_DEC_SAMPH_16B_PTR);
 828:Generated_Source\PSoC5/ADC.c ****             result = (result << 16u) | (CY_GET_REG16(ADC_DEC_SAMP_16B_PTR));
 829:Generated_Source\PSoC5/ADC.c ****         #endif /* CY_PSOC3 */
ARM GAS  C:\Users\celua\AppData\Local\Temp\cc8imhxh.s 			page 16


 830:Generated_Source\PSoC5/ADC.c ****     }
 831:Generated_Source\PSoC5/ADC.c ****     else if(coherency == ADC_DEC_SAMP_KEY_MID)
 832:Generated_Source\PSoC5/ADC.c ****     {   /* Read middle byte at the end */
 833:Generated_Source\PSoC5/ADC.c ****         #if (CY_PSOC3)
 834:Generated_Source\PSoC5/ADC.c ****             result = ADC_DEC_SAMPH_REG;
 835:Generated_Source\PSoC5/ADC.c ****             if((result & 0x80u) != 0u)
 836:Generated_Source\PSoC5/ADC.c ****             {   /* Sign extend */
 837:Generated_Source\PSoC5/ADC.c ****                 result |= 0xFF00u;
 838:Generated_Source\PSoC5/ADC.c ****             }
 839:Generated_Source\PSoC5/ADC.c ****             result = (result << 16u) | (CY_GET_REG16(ADC_DEC_SAMP_16B_PTR));
 840:Generated_Source\PSoC5/ADC.c ****         #else
 841:Generated_Source\PSoC5/ADC.c ****             result = CY_GET_REG16(ADC_DEC_SAMPH_16B_PTR);
 842:Generated_Source\PSoC5/ADC.c ****             result = (result << 16u) | ADC_DEC_SAMP_REG;
 843:Generated_Source\PSoC5/ADC.c ****             result |=  (uint32)((uint32)ADC_DEC_SAMPM_REG << 8u);
 844:Generated_Source\PSoC5/ADC.c ****         #endif /* CY_PSOC3 */
 845:Generated_Source\PSoC5/ADC.c ****     }
 846:Generated_Source\PSoC5/ADC.c ****     else /*ADC_DEC_SAMP_KEY_HIGH */
 847:Generated_Source\PSoC5/ADC.c ****     {
 848:Generated_Source\PSoC5/ADC.c ****         /* Read MSB byte at the end */
 849:Generated_Source\PSoC5/ADC.c ****         #if (CY_PSOC3)
 850:Generated_Source\PSoC5/ADC.c ****             result = CY_GET_REG16(ADC_DEC_SAMP_16B_PTR);
 851:Generated_Source\PSoC5/ADC.c **** 			tmp = ADC_DEC_SAMPH_REG;
 852:Generated_Source\PSoC5/ADC.c ****             if((tmp & 0x80u) != 0u)
 853:Generated_Source\PSoC5/ADC.c ****             {   /* Sign extend */
 854:Generated_Source\PSoC5/ADC.c ****                 tmp |= 0xFF00u;
 855:Generated_Source\PSoC5/ADC.c ****             }
 856:Generated_Source\PSoC5/ADC.c ****             result |= (uint32)tmp << 16u;
 857:Generated_Source\PSoC5/ADC.c ****         #else
 858:Generated_Source\PSoC5/ADC.c ****             result = CY_GET_REG16(ADC_DEC_SAMP_16B_PTR);
 859:Generated_Source\PSoC5/ADC.c ****             result |= (uint32)((uint32)CY_GET_REG16(ADC_DEC_SAMPH_16B_PTR) << 16u);
 860:Generated_Source\PSoC5/ADC.c ****         #endif /* CY_PSOC3 */
 861:Generated_Source\PSoC5/ADC.c ****     }
 862:Generated_Source\PSoC5/ADC.c ****     /* Clear conversion complete status in Single Sample mode with resolution above 16 bit */
 863:Generated_Source\PSoC5/ADC.c ****     if(ADC_stopConversion != 0u)
 864:Generated_Source\PSoC5/ADC.c ****     {
 865:Generated_Source\PSoC5/ADC.c ****         ADC_convDone = 0u;
 866:Generated_Source\PSoC5/ADC.c ****     }
 867:Generated_Source\PSoC5/ADC.c **** 
 868:Generated_Source\PSoC5/ADC.c ****     return ((int32)result);
 869:Generated_Source\PSoC5/ADC.c **** }
 870:Generated_Source\PSoC5/ADC.c **** 
 871:Generated_Source\PSoC5/ADC.c **** 
 872:Generated_Source\PSoC5/ADC.c **** /*******************************************************************************
 873:Generated_Source\PSoC5/ADC.c **** * Function Name: ADC_SetOffset
 874:Generated_Source\PSoC5/ADC.c **** ********************************************************************************
 875:Generated_Source\PSoC5/ADC.c **** *
 876:Generated_Source\PSoC5/ADC.c **** * Summary:
 877:Generated_Source\PSoC5/ADC.c **** *  Sets the ADC offset which is used by the functions ADC_CountsTo_uVolts, 
 878:Generated_Source\PSoC5/ADC.c **** *  ADC_CountsTo_mVolts, and ADC_CountsTo_Volts to subtract the offset from the 
 879:Generated_Source\PSoC5/ADC.c **** *  given reading before calculating the voltage conversion.
 880:Generated_Source\PSoC5/ADC.c **** *
 881:Generated_Source\PSoC5/ADC.c **** * Parameters:
 882:Generated_Source\PSoC5/ADC.c **** *  int32:  This value is a measured value when the inputs are shorted or 
 883:Generated_Source\PSoC5/ADC.c **** *          connected to the same input voltage.
 884:Generated_Source\PSoC5/ADC.c **** *
 885:Generated_Source\PSoC5/ADC.c **** * Return:
 886:Generated_Source\PSoC5/ADC.c **** *  None
ARM GAS  C:\Users\celua\AppData\Local\Temp\cc8imhxh.s 			page 17


 887:Generated_Source\PSoC5/ADC.c **** *
 888:Generated_Source\PSoC5/ADC.c **** * Global variables:
 889:Generated_Source\PSoC5/ADC.c **** *  ADC_Offset:  Modified to set the user provided offset. This
 890:Generated_Source\PSoC5/ADC.c **** *  variable is used for offset calibration purpose.
 891:Generated_Source\PSoC5/ADC.c **** *
 892:Generated_Source\PSoC5/ADC.c **** * Side Effects:
 893:Generated_Source\PSoC5/ADC.c **** *  Affects the ADC_CountsTo_Volts,
 894:Generated_Source\PSoC5/ADC.c **** *  ADC_CountsTo_mVolts, ADC_CountsTo_uVolts functions
 895:Generated_Source\PSoC5/ADC.c **** *  by subtracting the given offset.
 896:Generated_Source\PSoC5/ADC.c **** *
 897:Generated_Source\PSoC5/ADC.c **** *******************************************************************************/
 898:Generated_Source\PSoC5/ADC.c **** void ADC_SetOffset(int32 offset) 
 899:Generated_Source\PSoC5/ADC.c **** {
 900:Generated_Source\PSoC5/ADC.c **** 
 901:Generated_Source\PSoC5/ADC.c ****     ADC_Offset = offset;
 902:Generated_Source\PSoC5/ADC.c **** }
 903:Generated_Source\PSoC5/ADC.c **** 
 904:Generated_Source\PSoC5/ADC.c **** 
 905:Generated_Source\PSoC5/ADC.c **** /*******************************************************************************
 906:Generated_Source\PSoC5/ADC.c **** * Function Name: ADC_SetGain
 907:Generated_Source\PSoC5/ADC.c **** ********************************************************************************
 908:Generated_Source\PSoC5/ADC.c **** *
 909:Generated_Source\PSoC5/ADC.c **** * Summary:
 910:Generated_Source\PSoC5/ADC.c **** *  Sets the ADC gain in counts per volt for the voltage conversion
 911:Generated_Source\PSoC5/ADC.c **** *  functions below. This value is set by default by the reference and
 912:Generated_Source\PSoC5/ADC.c **** *  input range settings. It should only be used to further calibrate the
 913:Generated_Source\PSoC5/ADC.c **** *  ADC with a known input or if an external reference is used. This
 914:Generated_Source\PSoC5/ADC.c **** *  function may also be used to calibrate an entire signal chain, not
 915:Generated_Source\PSoC5/ADC.c **** *  just the ADC.
 916:Generated_Source\PSoC5/ADC.c **** *
 917:Generated_Source\PSoC5/ADC.c **** * Parameters:
 918:Generated_Source\PSoC5/ADC.c **** *  int32: ADC gain in counts per volt.
 919:Generated_Source\PSoC5/ADC.c **** *
 920:Generated_Source\PSoC5/ADC.c **** * Return:
 921:Generated_Source\PSoC5/ADC.c **** *  None
 922:Generated_Source\PSoC5/ADC.c **** *
 923:Generated_Source\PSoC5/ADC.c **** * Global variables:
 924:Generated_Source\PSoC5/ADC.c **** *  ADC_CountsPerVolt:  modified to set the ADC gain in counts
 925:Generated_Source\PSoC5/ADC.c **** *   per volt.
 926:Generated_Source\PSoC5/ADC.c **** *
 927:Generated_Source\PSoC5/ADC.c **** * Side Effects:
 928:Generated_Source\PSoC5/ADC.c **** *  Affects the ADC_CountsTo_Volts,
 929:Generated_Source\PSoC5/ADC.c **** *  ADC_CountsTo_mVolts, ADC_CountsTo_uVolts functions
 930:Generated_Source\PSoC5/ADC.c **** *  supplying the correct conversion between ADC counts and voltage.
 931:Generated_Source\PSoC5/ADC.c **** *
 932:Generated_Source\PSoC5/ADC.c **** *******************************************************************************/
 933:Generated_Source\PSoC5/ADC.c **** void ADC_SetGain(int32 adcGain) 
 934:Generated_Source\PSoC5/ADC.c **** {
 935:Generated_Source\PSoC5/ADC.c ****     ADC_CountsPerVolt = adcGain;
 936:Generated_Source\PSoC5/ADC.c **** }
 937:Generated_Source\PSoC5/ADC.c **** 
 938:Generated_Source\PSoC5/ADC.c **** 
 939:Generated_Source\PSoC5/ADC.c **** /*******************************************************************************
 940:Generated_Source\PSoC5/ADC.c **** * Function Name: ADC_CountsTo_mVolts
 941:Generated_Source\PSoC5/ADC.c **** ********************************************************************************
 942:Generated_Source\PSoC5/ADC.c **** *
 943:Generated_Source\PSoC5/ADC.c **** * Summary:
ARM GAS  C:\Users\celua\AppData\Local\Temp\cc8imhxh.s 			page 18


 944:Generated_Source\PSoC5/ADC.c **** *  Converts the ADC counts output to mVolts as a 16-bit integer. For
 945:Generated_Source\PSoC5/ADC.c **** *  example, if the ADC measured 0.534 volts, the return value would
 946:Generated_Source\PSoC5/ADC.c **** *  be 534 mVolts.
 947:Generated_Source\PSoC5/ADC.c **** *
 948:Generated_Source\PSoC5/ADC.c **** * Parameters:
 949:Generated_Source\PSoC5/ADC.c **** *  int32: adcCounts Result from the ADC conversion.
 950:Generated_Source\PSoC5/ADC.c **** *
 951:Generated_Source\PSoC5/ADC.c **** * Return:
 952:Generated_Source\PSoC5/ADC.c **** *  int16:  Result in mVolts
 953:Generated_Source\PSoC5/ADC.c **** *
 954:Generated_Source\PSoC5/ADC.c **** * Global variables:
 955:Generated_Source\PSoC5/ADC.c **** *  ADC_CountsPerVolt:  used to convert ADC counts to mVolts.
 956:Generated_Source\PSoC5/ADC.c **** *  ADC_Offset:  Used as the offset while converting ADC counts
 957:Generated_Source\PSoC5/ADC.c **** *   to mVolts.
 958:Generated_Source\PSoC5/ADC.c **** *
 959:Generated_Source\PSoC5/ADC.c **** *******************************************************************************/
 960:Generated_Source\PSoC5/ADC.c **** int16 ADC_CountsTo_mVolts(int32 adcCounts) 
 961:Generated_Source\PSoC5/ADC.c **** {
 962:Generated_Source\PSoC5/ADC.c **** 
 963:Generated_Source\PSoC5/ADC.c ****     int16 mVolts;
 964:Generated_Source\PSoC5/ADC.c **** 
 965:Generated_Source\PSoC5/ADC.c ****     /* Convert adcCounts to the right align if left option selected */
 966:Generated_Source\PSoC5/ADC.c ****     #if(ADC_CFG1_DEC_DIV != 0)
 967:Generated_Source\PSoC5/ADC.c ****         if(ADC_Config == ADC_CFG1)
 968:Generated_Source\PSoC5/ADC.c ****         {
 969:Generated_Source\PSoC5/ADC.c ****             adcCounts /= ADC_CFG1_DEC_DIV;
 970:Generated_Source\PSoC5/ADC.c ****         }
 971:Generated_Source\PSoC5/ADC.c ****     #endif /* ADC_CFG1_DEC_DIV */
 972:Generated_Source\PSoC5/ADC.c ****     #if((ADC_CFG2_DEC_DIV != 0) && (ADC_DEFAULT_NUM_CONFIGS > 1))
 973:Generated_Source\PSoC5/ADC.c ****         if(ADC_Config == ADC_CFG2)
 974:Generated_Source\PSoC5/ADC.c ****         {
 975:Generated_Source\PSoC5/ADC.c ****             adcCounts /= ADC_CFG2_DEC_DIV;
 976:Generated_Source\PSoC5/ADC.c ****         }
 977:Generated_Source\PSoC5/ADC.c ****     #endif /* ADC_CFG2_DEC_DIV */
 978:Generated_Source\PSoC5/ADC.c ****     #if((ADC_CFG3_DEC_DIV != 0) && (ADC_DEFAULT_NUM_CONFIGS > 2))
 979:Generated_Source\PSoC5/ADC.c ****         if(ADC_Config == ADC_CFG3)
 980:Generated_Source\PSoC5/ADC.c ****         {
 981:Generated_Source\PSoC5/ADC.c ****             adcCounts /= ADC_CFG3_DEC_DIV;
 982:Generated_Source\PSoC5/ADC.c ****         }
 983:Generated_Source\PSoC5/ADC.c ****     #endif /* ADC_CFG2_DEC_DIV */
 984:Generated_Source\PSoC5/ADC.c ****     #if((ADC_CFG4_DEC_DIV != 0) && (ADC_DEFAULT_NUM_CONFIGS > 3))
 985:Generated_Source\PSoC5/ADC.c ****         if(ADC_Config == ADC_CFG4)
 986:Generated_Source\PSoC5/ADC.c ****         {
 987:Generated_Source\PSoC5/ADC.c ****             adcCounts /= ADC_CFG4_DEC_DIV;
 988:Generated_Source\PSoC5/ADC.c ****         }
 989:Generated_Source\PSoC5/ADC.c ****     #endif /* ADC_CFG2_DEC_DIV */
 990:Generated_Source\PSoC5/ADC.c **** 
 991:Generated_Source\PSoC5/ADC.c ****     /* Subtract ADC offset */
 992:Generated_Source\PSoC5/ADC.c ****     adcCounts -= ADC_Offset;
 993:Generated_Source\PSoC5/ADC.c **** 
 994:Generated_Source\PSoC5/ADC.c ****     mVolts = (int16)(( adcCounts * ADC_1MV_COUNTS ) / ADC_CountsPerVolt) ;
 995:Generated_Source\PSoC5/ADC.c **** 
 996:Generated_Source\PSoC5/ADC.c ****     return(mVolts);
 997:Generated_Source\PSoC5/ADC.c **** }
 998:Generated_Source\PSoC5/ADC.c **** 
 999:Generated_Source\PSoC5/ADC.c **** 
1000:Generated_Source\PSoC5/ADC.c **** /*******************************************************************************
ARM GAS  C:\Users\celua\AppData\Local\Temp\cc8imhxh.s 			page 19


1001:Generated_Source\PSoC5/ADC.c **** * Function Name: ADC_CountsTo_Volts
1002:Generated_Source\PSoC5/ADC.c **** ********************************************************************************
1003:Generated_Source\PSoC5/ADC.c **** *
1004:Generated_Source\PSoC5/ADC.c **** * Summary:
1005:Generated_Source\PSoC5/ADC.c **** *  Converts the ADC output to Volts as a floating point number. For
1006:Generated_Source\PSoC5/ADC.c **** *  example, if the ADC measure a voltage of 1.2345 Volts, the
1007:Generated_Source\PSoC5/ADC.c **** *  returned result would be +1.2345 Volts.
1008:Generated_Source\PSoC5/ADC.c **** *
1009:Generated_Source\PSoC5/ADC.c **** * Parameters:
1010:Generated_Source\PSoC5/ADC.c **** *  int32 adcCounts:  Result from the ADC conversion.
1011:Generated_Source\PSoC5/ADC.c **** *
1012:Generated_Source\PSoC5/ADC.c **** * Return:
1013:Generated_Source\PSoC5/ADC.c **** *  float32: Result in Volts
1014:Generated_Source\PSoC5/ADC.c **** *
1015:Generated_Source\PSoC5/ADC.c **** * Global variables:
1016:Generated_Source\PSoC5/ADC.c **** *  ADC_CountsPerVolt:  used to convert to Volts.
1017:Generated_Source\PSoC5/ADC.c **** *  ADC_Offset:  Used as the offset while converting ADC counts
1018:Generated_Source\PSoC5/ADC.c **** *   to Volts.
1019:Generated_Source\PSoC5/ADC.c **** *
1020:Generated_Source\PSoC5/ADC.c **** *******************************************************************************/
1021:Generated_Source\PSoC5/ADC.c **** float32 ADC_CountsTo_Volts(int32 adcCounts) 
1022:Generated_Source\PSoC5/ADC.c **** {
1023:Generated_Source\PSoC5/ADC.c **** 
1024:Generated_Source\PSoC5/ADC.c ****     float32 Volts;
1025:Generated_Source\PSoC5/ADC.c **** 
1026:Generated_Source\PSoC5/ADC.c ****     /* Convert adcCounts to the right align if left option selected */
1027:Generated_Source\PSoC5/ADC.c ****     #if(ADC_CFG1_DEC_DIV != 0)
1028:Generated_Source\PSoC5/ADC.c ****         if(ADC_Config == ADC_CFG1)
1029:Generated_Source\PSoC5/ADC.c ****         {
1030:Generated_Source\PSoC5/ADC.c ****             adcCounts /= ADC_CFG1_DEC_DIV;
1031:Generated_Source\PSoC5/ADC.c ****         }
1032:Generated_Source\PSoC5/ADC.c ****     #endif /* ADC_CFG1_DEC_DIV */
1033:Generated_Source\PSoC5/ADC.c ****     #if((ADC_CFG2_DEC_DIV != 0) && (ADC_DEFAULT_NUM_CONFIGS > 1))
1034:Generated_Source\PSoC5/ADC.c ****         if(ADC_Config == ADC_CFG2)
1035:Generated_Source\PSoC5/ADC.c ****         {
1036:Generated_Source\PSoC5/ADC.c ****             adcCounts /= ADC_CFG2_DEC_DIV;
1037:Generated_Source\PSoC5/ADC.c ****         }
1038:Generated_Source\PSoC5/ADC.c ****     #endif /* ADC_CFG2_DEC_DIV */
1039:Generated_Source\PSoC5/ADC.c ****     #if((ADC_CFG3_DEC_DIV != 0) && (ADC_DEFAULT_NUM_CONFIGS > 2))
1040:Generated_Source\PSoC5/ADC.c ****         if(ADC_Config == ADC_CFG3)
1041:Generated_Source\PSoC5/ADC.c ****         {
1042:Generated_Source\PSoC5/ADC.c ****             adcCounts /= ADC_CFG3_DEC_DIV;
1043:Generated_Source\PSoC5/ADC.c ****         }
1044:Generated_Source\PSoC5/ADC.c ****     #endif /* ADC_CFG2_DEC_DIV */
1045:Generated_Source\PSoC5/ADC.c ****     #if((ADC_CFG4_DEC_DIV != 0) && (ADC_DEFAULT_NUM_CONFIGS > 3))
1046:Generated_Source\PSoC5/ADC.c ****         if(ADC_Config == ADC_CFG4)
1047:Generated_Source\PSoC5/ADC.c ****         {
1048:Generated_Source\PSoC5/ADC.c ****             adcCounts /= ADC_CFG4_DEC_DIV;
1049:Generated_Source\PSoC5/ADC.c ****         }
1050:Generated_Source\PSoC5/ADC.c ****     #endif /* ADC_CFG2_DEC_DIV */
1051:Generated_Source\PSoC5/ADC.c **** 
1052:Generated_Source\PSoC5/ADC.c ****     /* Subtract ADC offset */
1053:Generated_Source\PSoC5/ADC.c ****     adcCounts -= ADC_Offset;
1054:Generated_Source\PSoC5/ADC.c **** 
1055:Generated_Source\PSoC5/ADC.c ****     Volts = (float32)adcCounts / (float32)ADC_CountsPerVolt;
1056:Generated_Source\PSoC5/ADC.c **** 
1057:Generated_Source\PSoC5/ADC.c ****     return( Volts );
ARM GAS  C:\Users\celua\AppData\Local\Temp\cc8imhxh.s 			page 20


1058:Generated_Source\PSoC5/ADC.c **** }
1059:Generated_Source\PSoC5/ADC.c **** 
1060:Generated_Source\PSoC5/ADC.c **** 
1061:Generated_Source\PSoC5/ADC.c **** /*******************************************************************************
1062:Generated_Source\PSoC5/ADC.c **** * Function Name: ADC_CountsTo_uVolts
1063:Generated_Source\PSoC5/ADC.c **** ********************************************************************************
1064:Generated_Source\PSoC5/ADC.c **** *
1065:Generated_Source\PSoC5/ADC.c **** * Summary:
1066:Generated_Source\PSoC5/ADC.c **** *  Converts the ADC output to uVolts as a 32-bit integer. For example,
1067:Generated_Source\PSoC5/ADC.c **** *  if the ADC measured -0.02345 Volts, the return value would be -23450 uVolts.
1068:Generated_Source\PSoC5/ADC.c **** *
1069:Generated_Source\PSoC5/ADC.c **** * Parameters:
1070:Generated_Source\PSoC5/ADC.c **** *  int32 adcCounts: Result from the ADC conversion.
1071:Generated_Source\PSoC5/ADC.c **** *
1072:Generated_Source\PSoC5/ADC.c **** * Return:
1073:Generated_Source\PSoC5/ADC.c **** *  int32:  Result in uVolts
1074:Generated_Source\PSoC5/ADC.c **** *
1075:Generated_Source\PSoC5/ADC.c **** * Global variables:
1076:Generated_Source\PSoC5/ADC.c **** *  ADC_CountsPerVolt:  used to convert ADC counts to mVolts.
1077:Generated_Source\PSoC5/ADC.c **** *  ADC_Offset:  Used as the offset while converting ADC counts
1078:Generated_Source\PSoC5/ADC.c **** *   to mVolts.
1079:Generated_Source\PSoC5/ADC.c **** *
1080:Generated_Source\PSoC5/ADC.c **** * Theory:
1081:Generated_Source\PSoC5/ADC.c **** *  Care must be taken to not exceed the maximum value for a 31 bit signed
1082:Generated_Source\PSoC5/ADC.c **** *  number in the conversion to uVolts and at the same time not lose resolution.
1083:Generated_Source\PSoC5/ADC.c **** *
1084:Generated_Source\PSoC5/ADC.c **** *  uVolts = ((A * adcCounts) / ((int32)ADC_CountsPerVolt / B));
1085:Generated_Source\PSoC5/ADC.c **** *
1086:Generated_Source\PSoC5/ADC.c **** *******************************************************************************/
1087:Generated_Source\PSoC5/ADC.c **** int32 ADC_CountsTo_uVolts(int32 adcCounts) 
1088:Generated_Source\PSoC5/ADC.c **** {
1089:Generated_Source\PSoC5/ADC.c **** 
1090:Generated_Source\PSoC5/ADC.c ****     int32 uVolts;
1091:Generated_Source\PSoC5/ADC.c ****     int32 coefA;
1092:Generated_Source\PSoC5/ADC.c ****     int32 coefB;
1093:Generated_Source\PSoC5/ADC.c ****     uint8 resolution;
1094:Generated_Source\PSoC5/ADC.c **** 
1095:Generated_Source\PSoC5/ADC.c ****     /* Set the resolution based on the configuration */
1096:Generated_Source\PSoC5/ADC.c ****     /* Convert adcCounts to the right align if left option selected */
1097:Generated_Source\PSoC5/ADC.c ****     if (ADC_Config == ADC_CFG1)
1098:Generated_Source\PSoC5/ADC.c ****     {
1099:Generated_Source\PSoC5/ADC.c ****         resolution = ADC_CFG1_RESOLUTION;
1100:Generated_Source\PSoC5/ADC.c ****         #if(ADC_CFG1_DEC_DIV != 0)
1101:Generated_Source\PSoC5/ADC.c ****             adcCounts /= ADC_CFG1_DEC_DIV;
1102:Generated_Source\PSoC5/ADC.c ****         #endif /* ADC_CFG1_DEC_DIV */
1103:Generated_Source\PSoC5/ADC.c ****     }
1104:Generated_Source\PSoC5/ADC.c ****     else if (ADC_Config == ADC_CFG2)
1105:Generated_Source\PSoC5/ADC.c ****     {
1106:Generated_Source\PSoC5/ADC.c ****         resolution = ADC_CFG2_RESOLUTION;
1107:Generated_Source\PSoC5/ADC.c ****         #if(ADC_CFG2_DEC_DIV != 0)
1108:Generated_Source\PSoC5/ADC.c ****             adcCounts /= ADC_CFG2_DEC_DIV;
1109:Generated_Source\PSoC5/ADC.c ****         #endif /* ADC_CFG2_DEC_DIV */
1110:Generated_Source\PSoC5/ADC.c ****     }
1111:Generated_Source\PSoC5/ADC.c ****     else if (ADC_Config == ADC_CFG3)
1112:Generated_Source\PSoC5/ADC.c ****     {
1113:Generated_Source\PSoC5/ADC.c ****         resolution = ADC_CFG3_RESOLUTION;
1114:Generated_Source\PSoC5/ADC.c ****         #if(ADC_CFG3_DEC_DIV != 0)
ARM GAS  C:\Users\celua\AppData\Local\Temp\cc8imhxh.s 			page 21


1115:Generated_Source\PSoC5/ADC.c ****             adcCounts /= ADC_CFG3_DEC_DIV;
1116:Generated_Source\PSoC5/ADC.c ****         #endif /* ADC_CFG3_DEC_DIV */
1117:Generated_Source\PSoC5/ADC.c ****     }
1118:Generated_Source\PSoC5/ADC.c ****     else
1119:Generated_Source\PSoC5/ADC.c ****     {
1120:Generated_Source\PSoC5/ADC.c ****         resolution = ADC_CFG4_RESOLUTION;
1121:Generated_Source\PSoC5/ADC.c ****         #if(ADC_CFG4_DEC_DIV != 0)
1122:Generated_Source\PSoC5/ADC.c ****             adcCounts /= ADC_CFG4_DEC_DIV;
1123:Generated_Source\PSoC5/ADC.c ****         #endif /* ADC_CFG4_DEC_DIV */
1124:Generated_Source\PSoC5/ADC.c ****     }
1125:Generated_Source\PSoC5/ADC.c **** 
1126:Generated_Source\PSoC5/ADC.c ****     switch (resolution)
1127:Generated_Source\PSoC5/ADC.c ****     {
1128:Generated_Source\PSoC5/ADC.c ****         #if( (ADC_CFG1_RESOLUTION == ADC__BITS_12) || \
1129:Generated_Source\PSoC5/ADC.c ****              (ADC_CFG2_RESOLUTION == ADC__BITS_12) || \
1130:Generated_Source\PSoC5/ADC.c ****              (ADC_CFG3_RESOLUTION == ADC__BITS_12) || \
1131:Generated_Source\PSoC5/ADC.c ****              (ADC_CFG4_RESOLUTION == ADC__BITS_12) )
1132:Generated_Source\PSoC5/ADC.c ****             case (uint8)ADC__BITS_12:
1133:Generated_Source\PSoC5/ADC.c ****                 coefA = ADC_1UV_COUNTS / ADC_DIVISOR_2;
1134:Generated_Source\PSoC5/ADC.c ****                 coefB = ADC_DIVISOR_2;
1135:Generated_Source\PSoC5/ADC.c ****                 break;
1136:Generated_Source\PSoC5/ADC.c ****         #endif /* ADC__BITS_12 */    
1137:Generated_Source\PSoC5/ADC.c ****         #if( (ADC_CFG1_RESOLUTION == ADC__BITS_13) || \
1138:Generated_Source\PSoC5/ADC.c ****              (ADC_CFG2_RESOLUTION == ADC__BITS_13) || \
1139:Generated_Source\PSoC5/ADC.c ****              (ADC_CFG3_RESOLUTION == ADC__BITS_13) || \
1140:Generated_Source\PSoC5/ADC.c ****              (ADC_CFG4_RESOLUTION == ADC__BITS_13) )
1141:Generated_Source\PSoC5/ADC.c ****             case (uint8)ADC__BITS_13:
1142:Generated_Source\PSoC5/ADC.c ****                 coefA = ADC_1UV_COUNTS / ADC_DIVISOR_4;
1143:Generated_Source\PSoC5/ADC.c ****                 coefB = ADC_DIVISOR_4;
1144:Generated_Source\PSoC5/ADC.c ****                 break;
1145:Generated_Source\PSoC5/ADC.c ****         #endif /* ADC__BITS_13 */    
1146:Generated_Source\PSoC5/ADC.c ****         #if( (ADC_CFG1_RESOLUTION == ADC__BITS_14) || \
1147:Generated_Source\PSoC5/ADC.c ****              (ADC_CFG2_RESOLUTION == ADC__BITS_14) || \
1148:Generated_Source\PSoC5/ADC.c ****              (ADC_CFG3_RESOLUTION == ADC__BITS_14) || \
1149:Generated_Source\PSoC5/ADC.c ****              (ADC_CFG4_RESOLUTION == ADC__BITS_14) )
1150:Generated_Source\PSoC5/ADC.c ****             case (uint8)ADC__BITS_14:
1151:Generated_Source\PSoC5/ADC.c ****                 coefA = ADC_1UV_COUNTS / ADC_DIVISOR_8;
1152:Generated_Source\PSoC5/ADC.c ****                 coefB = ADC_DIVISOR_8;
1153:Generated_Source\PSoC5/ADC.c ****                 break;
1154:Generated_Source\PSoC5/ADC.c ****         #endif /* ADC__BITS_14 */    
1155:Generated_Source\PSoC5/ADC.c ****         #if( (ADC_CFG1_RESOLUTION == ADC__BITS_15) || \
1156:Generated_Source\PSoC5/ADC.c ****              (ADC_CFG2_RESOLUTION == ADC__BITS_15) || \
1157:Generated_Source\PSoC5/ADC.c ****              (ADC_CFG3_RESOLUTION == ADC__BITS_15) || \
1158:Generated_Source\PSoC5/ADC.c ****              (ADC_CFG4_RESOLUTION == ADC__BITS_15) )
1159:Generated_Source\PSoC5/ADC.c ****             case (uint8)ADC__BITS_15:
1160:Generated_Source\PSoC5/ADC.c ****                 coefA = ADC_1UV_COUNTS / ADC_DIVISOR_16;
1161:Generated_Source\PSoC5/ADC.c ****                 coefB = ADC_DIVISOR_16;
1162:Generated_Source\PSoC5/ADC.c ****                 break;
1163:Generated_Source\PSoC5/ADC.c ****         #endif /* ADC__BITS_15 */    
1164:Generated_Source\PSoC5/ADC.c ****         #if( (ADC_CFG1_RESOLUTION == ADC__BITS_16) || \
1165:Generated_Source\PSoC5/ADC.c ****              (ADC_CFG2_RESOLUTION == ADC__BITS_16) || \
1166:Generated_Source\PSoC5/ADC.c ****              (ADC_CFG3_RESOLUTION == ADC__BITS_16) || \
1167:Generated_Source\PSoC5/ADC.c ****              (ADC_CFG4_RESOLUTION == ADC__BITS_16) )
1168:Generated_Source\PSoC5/ADC.c ****             case (uint8)ADC__BITS_16:
1169:Generated_Source\PSoC5/ADC.c ****                 coefA = ADC_1UV_COUNTS / ADC_DIVISOR_32;
1170:Generated_Source\PSoC5/ADC.c ****                 coefB = ADC_DIVISOR_32;
1171:Generated_Source\PSoC5/ADC.c ****                 break;
ARM GAS  C:\Users\celua\AppData\Local\Temp\cc8imhxh.s 			page 22


1172:Generated_Source\PSoC5/ADC.c ****         #endif /* ADC__BITS_16 */    
1173:Generated_Source\PSoC5/ADC.c ****         #if( (ADC_CFG1_RESOLUTION == ADC__BITS_17) || \
1174:Generated_Source\PSoC5/ADC.c ****              (ADC_CFG2_RESOLUTION == ADC__BITS_17) || \
1175:Generated_Source\PSoC5/ADC.c ****              (ADC_CFG3_RESOLUTION == ADC__BITS_17) || \
1176:Generated_Source\PSoC5/ADC.c ****              (ADC_CFG4_RESOLUTION == ADC__BITS_17) )
1177:Generated_Source\PSoC5/ADC.c ****             case (uint8)ADC__BITS_17:
1178:Generated_Source\PSoC5/ADC.c ****                 coefA = ADC_1UV_COUNTS / ADC_DIVISOR_64;
1179:Generated_Source\PSoC5/ADC.c ****                 coefB = ADC_DIVISOR_64;
1180:Generated_Source\PSoC5/ADC.c ****                 break;
1181:Generated_Source\PSoC5/ADC.c ****         #endif /* ADC__BITS_17 */    
1182:Generated_Source\PSoC5/ADC.c ****         #if( (ADC_CFG1_RESOLUTION == ADC__BITS_18) || \
1183:Generated_Source\PSoC5/ADC.c ****              (ADC_CFG2_RESOLUTION == ADC__BITS_18) || \
1184:Generated_Source\PSoC5/ADC.c ****              (ADC_CFG3_RESOLUTION == ADC__BITS_18) || \
1185:Generated_Source\PSoC5/ADC.c ****              (ADC_CFG4_RESOLUTION == ADC__BITS_18) )
1186:Generated_Source\PSoC5/ADC.c ****             case (uint8)ADC__BITS_18:
1187:Generated_Source\PSoC5/ADC.c ****                 coefA = ADC_1UV_COUNTS / ADC_DIVISOR_125;
1188:Generated_Source\PSoC5/ADC.c ****                 coefB = ADC_DIVISOR_125;
1189:Generated_Source\PSoC5/ADC.c ****                 break;
1190:Generated_Source\PSoC5/ADC.c ****         #endif /* ADC__BITS_18 */    
1191:Generated_Source\PSoC5/ADC.c ****         #if( (ADC_CFG1_RESOLUTION == ADC__BITS_19) || \
1192:Generated_Source\PSoC5/ADC.c ****              (ADC_CFG2_RESOLUTION == ADC__BITS_19) || \
1193:Generated_Source\PSoC5/ADC.c ****              (ADC_CFG3_RESOLUTION == ADC__BITS_19) || \
1194:Generated_Source\PSoC5/ADC.c ****              (ADC_CFG4_RESOLUTION == ADC__BITS_19) )
1195:Generated_Source\PSoC5/ADC.c ****             case (uint8)ADC__BITS_19:
1196:Generated_Source\PSoC5/ADC.c ****                 coefA = ADC_1UV_COUNTS / ADC_DIVISOR_250;
1197:Generated_Source\PSoC5/ADC.c ****                 coefB = ADC_DIVISOR_250;
1198:Generated_Source\PSoC5/ADC.c ****                 break;
1199:Generated_Source\PSoC5/ADC.c ****         #endif /* ADC__BITS_19 */    
1200:Generated_Source\PSoC5/ADC.c ****         #if( (ADC_CFG1_RESOLUTION == ADC__BITS_20) || \
1201:Generated_Source\PSoC5/ADC.c ****              (ADC_CFG2_RESOLUTION == ADC__BITS_20) || \
1202:Generated_Source\PSoC5/ADC.c ****              (ADC_CFG3_RESOLUTION == ADC__BITS_20) || \
1203:Generated_Source\PSoC5/ADC.c ****              (ADC_CFG4_RESOLUTION == ADC__BITS_20) )
1204:Generated_Source\PSoC5/ADC.c ****             case (uint8)ADC__BITS_20:
1205:Generated_Source\PSoC5/ADC.c ****                 coefA = ADC_1UV_COUNTS / ADC_DIVISOR_500;
1206:Generated_Source\PSoC5/ADC.c ****                 coefB = ADC_DIVISOR_500;
1207:Generated_Source\PSoC5/ADC.c ****                 break;
1208:Generated_Source\PSoC5/ADC.c ****         #endif /* ADC__BITS_20 */    
1209:Generated_Source\PSoC5/ADC.c ****         default:    /* resolution < 12 */
1210:Generated_Source\PSoC5/ADC.c ****             /* 11 bits ADC + 2^20(1048576) = 31 bits */
1211:Generated_Source\PSoC5/ADC.c ****             coefA = ADC_1UV_COUNTS;
1212:Generated_Source\PSoC5/ADC.c ****             coefB = ADC_DIVISOR_1;
1213:Generated_Source\PSoC5/ADC.c ****             break;
1214:Generated_Source\PSoC5/ADC.c ****     }
1215:Generated_Source\PSoC5/ADC.c ****     coefB = ADC_CountsPerVolt / coefB;
1216:Generated_Source\PSoC5/ADC.c ****     uVolts = ((coefA * adcCounts) / coefB) - ((coefA * ADC_Offset) / coefB);
1217:Generated_Source\PSoC5/ADC.c **** 
1218:Generated_Source\PSoC5/ADC.c ****     return( uVolts );
1219:Generated_Source\PSoC5/ADC.c **** }
1220:Generated_Source\PSoC5/ADC.c **** 
1221:Generated_Source\PSoC5/ADC.c **** 
1222:Generated_Source\PSoC5/ADC.c **** /*******************************************************************************
1223:Generated_Source\PSoC5/ADC.c **** * Function Name: ADC_InitConfig(uint8 config)
1224:Generated_Source\PSoC5/ADC.c **** ********************************************************************************
1225:Generated_Source\PSoC5/ADC.c **** *
1226:Generated_Source\PSoC5/ADC.c **** * Summary:
1227:Generated_Source\PSoC5/ADC.c **** *  Initializes all registers based on customizer settings
1228:Generated_Source\PSoC5/ADC.c **** *
ARM GAS  C:\Users\celua\AppData\Local\Temp\cc8imhxh.s 			page 23


1229:Generated_Source\PSoC5/ADC.c **** * Parameters:
1230:Generated_Source\PSoC5/ADC.c **** *   void
1231:Generated_Source\PSoC5/ADC.c **** *
1232:Generated_Source\PSoC5/ADC.c **** * Return:
1233:Generated_Source\PSoC5/ADC.c **** *  None
1234:Generated_Source\PSoC5/ADC.c **** *
1235:Generated_Source\PSoC5/ADC.c **** * Global variables:
1236:Generated_Source\PSoC5/ADC.c **** *  ADC_CountsPerVolt:  Used to set the default counts per volt.
1237:Generated_Source\PSoC5/ADC.c **** *
1238:Generated_Source\PSoC5/ADC.c **** * Side Effects: Rewrites the coherency set by ADC_SetCoherency()
1239:Generated_Source\PSoC5/ADC.c **** *   API to the default value.
1240:Generated_Source\PSoC5/ADC.c **** *
1241:Generated_Source\PSoC5/ADC.c **** *******************************************************************************/
1242:Generated_Source\PSoC5/ADC.c **** static void ADC_InitConfig(uint8 config) 
1243:Generated_Source\PSoC5/ADC.c **** {
1244:Generated_Source\PSoC5/ADC.c ****     ADC_stopConversion = 0u;
1245:Generated_Source\PSoC5/ADC.c **** 
1246:Generated_Source\PSoC5/ADC.c ****     if (config == 1u)
1247:Generated_Source\PSoC5/ADC.c ****     {
1248:Generated_Source\PSoC5/ADC.c ****         /* Default Config */
1249:Generated_Source\PSoC5/ADC.c ****         ADC_DEC_CR_REG      = ADC_CFG1_DEC_CR;
1250:Generated_Source\PSoC5/ADC.c ****         ADC_DEC_SHIFT1_REG  = ADC_CFG1_DEC_SHIFT1;
1251:Generated_Source\PSoC5/ADC.c ****         ADC_DEC_SHIFT2_REG  = ADC_CFG1_DEC_SHIFT2;
1252:Generated_Source\PSoC5/ADC.c ****         ADC_DEC_DR2_REG     = ADC_CFG1_DEC_DR2;
1253:Generated_Source\PSoC5/ADC.c ****         ADC_DEC_DR2H_REG    = ADC_CFG1_DEC_DR2H;
1254:Generated_Source\PSoC5/ADC.c ****         ADC_DEC_DR1_REG     = ADC_CFG1_DEC_DR1;
1255:Generated_Source\PSoC5/ADC.c ****         ADC_DEC_OCOR_REG    = ADC_CFG1_DEC_OCOR;
1256:Generated_Source\PSoC5/ADC.c ****         ADC_DEC_OCORM_REG   = ADC_CFG1_DEC_OCORM;
1257:Generated_Source\PSoC5/ADC.c ****         ADC_DEC_OCORH_REG   = ADC_CFG1_DEC_OCORH;
1258:Generated_Source\PSoC5/ADC.c ****         ADC_DEC_COHER_REG   = ADC_CFG1_DEC_COHER;
1259:Generated_Source\PSoC5/ADC.c **** 
1260:Generated_Source\PSoC5/ADC.c ****         ADC_DSM_CR4_REG     = ADC_CFG1_DSM_CR4;
1261:Generated_Source\PSoC5/ADC.c ****         ADC_DSM_CR5_REG     = ADC_CFG1_DSM_CR5;
1262:Generated_Source\PSoC5/ADC.c ****         ADC_DSM_CR6_REG     = ADC_CFG1_DSM_CR6;
1263:Generated_Source\PSoC5/ADC.c ****         ADC_DSM_CR7_REG     = ADC_CFG1_DSM_CR7;
1264:Generated_Source\PSoC5/ADC.c ****         ADC_DSM_CR10_REG    = ADC_CFG1_DSM_CR10;
1265:Generated_Source\PSoC5/ADC.c ****         ADC_DSM_CR11_REG    = ADC_CFG1_DSM_CR11;
1266:Generated_Source\PSoC5/ADC.c ****         ADC_DSM_CR12_REG    = ADC_CFG1_DSM_CR12;
1267:Generated_Source\PSoC5/ADC.c ****         ADC_DSM_CR14_REG    = ADC_CFG1_DSM_CR14;
1268:Generated_Source\PSoC5/ADC.c ****         ADC_DSM_CR15_REG    = ADC_CFG1_DSM_CR15;
1269:Generated_Source\PSoC5/ADC.c ****         ADC_DSM_CR16_REG    = ADC_CFG1_DSM_CR16;
1270:Generated_Source\PSoC5/ADC.c ****         ADC_DSM_CR17_REG    = ADC_CFG1_DSM_CR17;
1271:Generated_Source\PSoC5/ADC.c ****         /* Set DSM_REF0_REG by disabling and enabling the PRESS circuit */
1272:Generated_Source\PSoC5/ADC.c ****         ADC_SetDSMRef0Reg(ADC_CFG1_DSM_REF0);
1273:Generated_Source\PSoC5/ADC.c ****         ADC_DSM_REF2_REG    = ADC_CFG1_DSM_REF2;
1274:Generated_Source\PSoC5/ADC.c ****         ADC_DSM_REF3_REG    = ADC_CFG1_DSM_REF3;
1275:Generated_Source\PSoC5/ADC.c **** 
1276:Generated_Source\PSoC5/ADC.c ****         ADC_DSM_BUF0_REG    = ADC_CFG1_DSM_BUF0;
1277:Generated_Source\PSoC5/ADC.c ****         ADC_DSM_BUF1_REG    = ADC_CFG1_DSM_BUF1;
1278:Generated_Source\PSoC5/ADC.c ****         ADC_DSM_BUF2_REG    = ADC_CFG1_DSM_BUF2;
1279:Generated_Source\PSoC5/ADC.c ****         ADC_DSM_BUF3_REG    = ADC_CFG1_DSM_BUF3;
1280:Generated_Source\PSoC5/ADC.c **** 
1281:Generated_Source\PSoC5/ADC.c ****         /* To select either Vssa or Vref to -ve input of DSM depending on
1282:Generated_Source\PSoC5/ADC.c ****         *  the input  range selected.
1283:Generated_Source\PSoC5/ADC.c ****         */
1284:Generated_Source\PSoC5/ADC.c ****         #if(ADC_DEFAULT_INPUT_MODE)
1285:Generated_Source\PSoC5/ADC.c ****             #if (ADC_CFG1_INPUT_RANGE == ADC_IR_VSSA_TO_2VREF)
ARM GAS  C:\Users\celua\AppData\Local\Temp\cc8imhxh.s 			page 24


1286:Generated_Source\PSoC5/ADC.c ****                 ADC_AMux_Select(1u);
1287:Generated_Source\PSoC5/ADC.c ****             #else
1288:Generated_Source\PSoC5/ADC.c ****                 ADC_AMux_Select(0u);
1289:Generated_Source\PSoC5/ADC.c ****             #endif /* ADC_IR_VSSA_TO_2VREF) */
1290:Generated_Source\PSoC5/ADC.c ****         #endif /* ADC_DEFAULT_INPUT_MODE */
1291:Generated_Source\PSoC5/ADC.c **** 
1292:Generated_Source\PSoC5/ADC.c ****         /* Set the Conversion stop if resolution is above 16 bit and conversion
1293:Generated_Source\PSoC5/ADC.c ****         *   mode is Single sample
1294:Generated_Source\PSoC5/ADC.c ****         */
1295:Generated_Source\PSoC5/ADC.c ****         #if(ADC_CFG1_RESOLUTION > 16 && \
1296:Generated_Source\PSoC5/ADC.c ****             ADC_CFG1_CONV_MODE == ADC_MODE_SINGLE_SAMPLE)
1297:Generated_Source\PSoC5/ADC.c ****             ADC_stopConversion = 1u;
1298:Generated_Source\PSoC5/ADC.c ****         #endif /* Single sample with resolution above 16 bits. */
1299:Generated_Source\PSoC5/ADC.c **** 
1300:Generated_Source\PSoC5/ADC.c ****         ADC_CountsPerVolt = (int32)ADC_CFG1_COUNTS_PER_VOLT;
1301:Generated_Source\PSoC5/ADC.c **** 
1302:Generated_Source\PSoC5/ADC.c ****         ADC_Ext_CP_Clk_SetDividerRegister(ADC_CFG1_CP_CLK_DIVIDER, 1u);
1303:Generated_Source\PSoC5/ADC.c **** 
1304:Generated_Source\PSoC5/ADC.c ****         /* This is only valid if there is an internal clock */
1305:Generated_Source\PSoC5/ADC.c ****         #if(ADC_DEFAULT_INTERNAL_CLK)
1306:Generated_Source\PSoC5/ADC.c ****             ADC_theACLK_SetDividerRegister(ADC_CFG1_ADC_CLK_DIVIDER, 1u);
1307:Generated_Source\PSoC5/ADC.c ****         #endif /* ADC_DEFAULT_INTERNAL_CLK */
1308:Generated_Source\PSoC5/ADC.c **** 
1309:Generated_Source\PSoC5/ADC.c ****         #if(ADC_IRQ_REMOVE == 0u)
1310:Generated_Source\PSoC5/ADC.c ****             /* Set interrupt vector */
1311:Generated_Source\PSoC5/ADC.c ****             (void)CyIntSetVector(ADC_INTC_NUMBER, &ADC_ISR1);
1312:Generated_Source\PSoC5/ADC.c ****         #endif   /* End ADC_IRQ_REMOVE */
1313:Generated_Source\PSoC5/ADC.c ****     }
1314:Generated_Source\PSoC5/ADC.c **** 
1315:Generated_Source\PSoC5/ADC.c ****     #if(ADC_DEFAULT_NUM_CONFIGS > 1)
1316:Generated_Source\PSoC5/ADC.c ****         if(config == 2u)
1317:Generated_Source\PSoC5/ADC.c ****         {
1318:Generated_Source\PSoC5/ADC.c ****             /* Second Config */
1319:Generated_Source\PSoC5/ADC.c ****             ADC_DEC_CR_REG      = ADC_CFG2_DEC_CR;
1320:Generated_Source\PSoC5/ADC.c ****             ADC_DEC_SHIFT1_REG  = ADC_CFG2_DEC_SHIFT1;
1321:Generated_Source\PSoC5/ADC.c ****             ADC_DEC_SHIFT2_REG  = ADC_CFG2_DEC_SHIFT2;
1322:Generated_Source\PSoC5/ADC.c ****             ADC_DEC_DR2_REG     = ADC_CFG2_DEC_DR2;
1323:Generated_Source\PSoC5/ADC.c ****             ADC_DEC_DR2H_REG    = ADC_CFG2_DEC_DR2H;
1324:Generated_Source\PSoC5/ADC.c ****             ADC_DEC_DR1_REG     = ADC_CFG2_DEC_DR1;
1325:Generated_Source\PSoC5/ADC.c ****             ADC_DEC_OCOR_REG    = ADC_CFG2_DEC_OCOR;
1326:Generated_Source\PSoC5/ADC.c ****             ADC_DEC_OCORM_REG   = ADC_CFG2_DEC_OCORM;
1327:Generated_Source\PSoC5/ADC.c ****             ADC_DEC_OCORH_REG   = ADC_CFG2_DEC_OCORH;
1328:Generated_Source\PSoC5/ADC.c ****             ADC_DEC_COHER_REG   = ADC_CFG2_DEC_COHER;
1329:Generated_Source\PSoC5/ADC.c **** 
1330:Generated_Source\PSoC5/ADC.c ****             ADC_DSM_CR4_REG     = ADC_CFG2_DSM_CR4;
1331:Generated_Source\PSoC5/ADC.c ****             ADC_DSM_CR5_REG     = ADC_CFG2_DSM_CR5;
1332:Generated_Source\PSoC5/ADC.c ****             ADC_DSM_CR6_REG     = ADC_CFG2_DSM_CR6;
1333:Generated_Source\PSoC5/ADC.c ****             ADC_DSM_CR7_REG     = ADC_CFG2_DSM_CR7;
1334:Generated_Source\PSoC5/ADC.c ****             ADC_DSM_CR10_REG    = ADC_CFG2_DSM_CR10;
1335:Generated_Source\PSoC5/ADC.c ****             ADC_DSM_CR11_REG    = ADC_CFG2_DSM_CR11;
1336:Generated_Source\PSoC5/ADC.c ****             ADC_DSM_CR12_REG    = ADC_CFG2_DSM_CR12;
1337:Generated_Source\PSoC5/ADC.c ****             ADC_DSM_CR14_REG    = ADC_CFG2_DSM_CR14;
1338:Generated_Source\PSoC5/ADC.c ****             ADC_DSM_CR15_REG    = ADC_CFG2_DSM_CR15;
1339:Generated_Source\PSoC5/ADC.c ****             ADC_DSM_CR16_REG    = ADC_CFG2_DSM_CR16;
1340:Generated_Source\PSoC5/ADC.c ****             ADC_DSM_CR17_REG    = ADC_CFG2_DSM_CR17;
1341:Generated_Source\PSoC5/ADC.c ****             /* Set DSM_REF0_REG by disabling and enabling the PRESS cirucit */
1342:Generated_Source\PSoC5/ADC.c ****             ADC_SetDSMRef0Reg(ADC_CFG2_DSM_REF0);
ARM GAS  C:\Users\celua\AppData\Local\Temp\cc8imhxh.s 			page 25


1343:Generated_Source\PSoC5/ADC.c ****             ADC_DSM_REF2_REG    = ADC_CFG2_DSM_REF2;
1344:Generated_Source\PSoC5/ADC.c ****             ADC_DSM_REF3_REG    = ADC_CFG2_DSM_REF3;
1345:Generated_Source\PSoC5/ADC.c **** 
1346:Generated_Source\PSoC5/ADC.c ****             ADC_DSM_BUF0_REG    = ADC_CFG2_DSM_BUF0;
1347:Generated_Source\PSoC5/ADC.c ****             ADC_DSM_BUF1_REG    = ADC_CFG2_DSM_BUF1;
1348:Generated_Source\PSoC5/ADC.c ****             ADC_DSM_BUF2_REG    = ADC_CFG2_DSM_BUF2;
1349:Generated_Source\PSoC5/ADC.c ****             ADC_DSM_BUF3_REG    = ADC_CFG2_DSM_BUF3;
1350:Generated_Source\PSoC5/ADC.c **** 
1351:Generated_Source\PSoC5/ADC.c ****             /* To select either Vssa or Vref to -ve input of DSM depending on
1352:Generated_Source\PSoC5/ADC.c ****             *  the input range selected.
1353:Generated_Source\PSoC5/ADC.c ****             */
1354:Generated_Source\PSoC5/ADC.c **** 
1355:Generated_Source\PSoC5/ADC.c ****             #if(ADC_DEFAULT_INPUT_MODE)
1356:Generated_Source\PSoC5/ADC.c ****                 #if (ADC_CFG2_INPUT_RANGE == ADC_IR_VSSA_TO_2VREF)
1357:Generated_Source\PSoC5/ADC.c ****                     ADC_AMux_Select(1u);
1358:Generated_Source\PSoC5/ADC.c ****                 #else
1359:Generated_Source\PSoC5/ADC.c ****                     ADC_AMux_Select(0u);
1360:Generated_Source\PSoC5/ADC.c ****                 #endif /* ADC_IR_VSSA_TO_2VREF) */
1361:Generated_Source\PSoC5/ADC.c ****             #endif /* ADC_DEFAULT_INPUT_MODE */
1362:Generated_Source\PSoC5/ADC.c **** 
1363:Generated_Source\PSoC5/ADC.c ****             /* Set the Conversion stop if resolution is above 16 bit and
1364:Generated_Source\PSoC5/ADC.c ****             *   conversion mode is Single sample
1365:Generated_Source\PSoC5/ADC.c ****             */
1366:Generated_Source\PSoC5/ADC.c ****             #if(ADC_CFG2_RESOLUTION > 16 && \
1367:Generated_Source\PSoC5/ADC.c ****                 ADC_CFG2_CONV_MODE == ADC_MODE_SINGLE_SAMPLE)
1368:Generated_Source\PSoC5/ADC.c ****                 ADC_stopConversion = 1u;
1369:Generated_Source\PSoC5/ADC.c ****             #endif /* Single sample with resolution above 16 bits. */
1370:Generated_Source\PSoC5/ADC.c **** 
1371:Generated_Source\PSoC5/ADC.c ****             ADC_CountsPerVolt = (int32)ADC_CFG2_COUNTS_PER_VOLT;
1372:Generated_Source\PSoC5/ADC.c **** 
1373:Generated_Source\PSoC5/ADC.c ****             ADC_Ext_CP_Clk_SetDividerRegister(ADC_CFG2_CP_CLK_DIVIDER, 1u);
1374:Generated_Source\PSoC5/ADC.c **** 
1375:Generated_Source\PSoC5/ADC.c ****             /* This is only valid if there is an internal clock */
1376:Generated_Source\PSoC5/ADC.c ****             #if(ADC_DEFAULT_INTERNAL_CLK)
1377:Generated_Source\PSoC5/ADC.c ****                 ADC_theACLK_SetDividerRegister(ADC_CFG2_ADC_CLK_DIVIDER, 1u);
1378:Generated_Source\PSoC5/ADC.c ****             #endif /* ADC_DEFAULT_INTERNAL_CLK */
1379:Generated_Source\PSoC5/ADC.c **** 
1380:Generated_Source\PSoC5/ADC.c ****             #if(ADC_IRQ_REMOVE == 0u)
1381:Generated_Source\PSoC5/ADC.c ****                 /* Set interrupt vector */
1382:Generated_Source\PSoC5/ADC.c ****                 (void)CyIntSetVector(ADC_INTC_NUMBER, &ADC_ISR2);
1383:Generated_Source\PSoC5/ADC.c ****             #endif   /* End ADC_IRQ_REMOVE */
1384:Generated_Source\PSoC5/ADC.c ****         }
1385:Generated_Source\PSoC5/ADC.c ****     #endif /* ADC_DEFAULT_NUM_CONFIGS > 1 */
1386:Generated_Source\PSoC5/ADC.c **** 
1387:Generated_Source\PSoC5/ADC.c ****     #if(ADC_DEFAULT_NUM_CONFIGS > 2)
1388:Generated_Source\PSoC5/ADC.c ****         if(config == 3u)
1389:Generated_Source\PSoC5/ADC.c ****         {
1390:Generated_Source\PSoC5/ADC.c ****             /* Third Config */
1391:Generated_Source\PSoC5/ADC.c ****             ADC_DEC_CR_REG      = ADC_CFG3_DEC_CR;
1392:Generated_Source\PSoC5/ADC.c ****             ADC_DEC_SHIFT1_REG  = ADC_CFG3_DEC_SHIFT1;
1393:Generated_Source\PSoC5/ADC.c ****             ADC_DEC_SHIFT2_REG  = ADC_CFG3_DEC_SHIFT2;
1394:Generated_Source\PSoC5/ADC.c ****             ADC_DEC_DR2_REG     = ADC_CFG3_DEC_DR2;
1395:Generated_Source\PSoC5/ADC.c ****             ADC_DEC_DR2H_REG    = ADC_CFG3_DEC_DR2H;
1396:Generated_Source\PSoC5/ADC.c ****             ADC_DEC_DR1_REG     = ADC_CFG3_DEC_DR1;
1397:Generated_Source\PSoC5/ADC.c ****             ADC_DEC_OCOR_REG    = ADC_CFG3_DEC_OCOR;
1398:Generated_Source\PSoC5/ADC.c ****             ADC_DEC_OCORM_REG   = ADC_CFG3_DEC_OCORM;
1399:Generated_Source\PSoC5/ADC.c ****             ADC_DEC_OCORH_REG   = ADC_CFG3_DEC_OCORH;
ARM GAS  C:\Users\celua\AppData\Local\Temp\cc8imhxh.s 			page 26


1400:Generated_Source\PSoC5/ADC.c ****             ADC_DEC_COHER_REG   = ADC_CFG3_DEC_COHER;
1401:Generated_Source\PSoC5/ADC.c **** 
1402:Generated_Source\PSoC5/ADC.c ****             ADC_DSM_CR4_REG     = ADC_CFG3_DSM_CR4;
1403:Generated_Source\PSoC5/ADC.c ****             ADC_DSM_CR5_REG     = ADC_CFG3_DSM_CR5;
1404:Generated_Source\PSoC5/ADC.c ****             ADC_DSM_CR6_REG     = ADC_CFG3_DSM_CR6;
1405:Generated_Source\PSoC5/ADC.c ****             ADC_DSM_CR7_REG     = ADC_CFG3_DSM_CR7;
1406:Generated_Source\PSoC5/ADC.c ****             ADC_DSM_CR10_REG    = ADC_CFG3_DSM_CR10;
1407:Generated_Source\PSoC5/ADC.c ****             ADC_DSM_CR11_REG    = ADC_CFG3_DSM_CR11;
1408:Generated_Source\PSoC5/ADC.c ****             ADC_DSM_CR12_REG    = ADC_CFG3_DSM_CR12;
1409:Generated_Source\PSoC5/ADC.c ****             ADC_DSM_CR14_REG    = ADC_CFG3_DSM_CR14;
1410:Generated_Source\PSoC5/ADC.c ****             ADC_DSM_CR15_REG    = ADC_CFG3_DSM_CR15;
1411:Generated_Source\PSoC5/ADC.c ****             ADC_DSM_CR16_REG    = ADC_CFG3_DSM_CR16;
1412:Generated_Source\PSoC5/ADC.c ****             ADC_DSM_CR17_REG    = ADC_CFG3_DSM_CR17;
1413:Generated_Source\PSoC5/ADC.c ****             /* Set DSM_REF0_REG by disabling and enabling the PRESS circuit */
1414:Generated_Source\PSoC5/ADC.c ****             ADC_SetDSMRef0Reg(ADC_CFG3_DSM_REF0);
1415:Generated_Source\PSoC5/ADC.c ****             ADC_DSM_REF2_REG    = ADC_CFG3_DSM_REF2;
1416:Generated_Source\PSoC5/ADC.c ****             ADC_DSM_REF3_REG    = ADC_CFG3_DSM_REF3;
1417:Generated_Source\PSoC5/ADC.c **** 
1418:Generated_Source\PSoC5/ADC.c ****             ADC_DSM_BUF0_REG    = ADC_CFG3_DSM_BUF0;
1419:Generated_Source\PSoC5/ADC.c ****             ADC_DSM_BUF1_REG    = ADC_CFG3_DSM_BUF1;
1420:Generated_Source\PSoC5/ADC.c ****             ADC_DSM_BUF2_REG    = ADC_CFG3_DSM_BUF2;
1421:Generated_Source\PSoC5/ADC.c ****             ADC_DSM_BUF3_REG    = ADC_CFG3_DSM_BUF3;
1422:Generated_Source\PSoC5/ADC.c **** 
1423:Generated_Source\PSoC5/ADC.c ****             /* To select either Vssa or Vref to -ve input of DSM depending on
1424:Generated_Source\PSoC5/ADC.c ****             *  the input range selected.
1425:Generated_Source\PSoC5/ADC.c ****             */
1426:Generated_Source\PSoC5/ADC.c ****             #if(ADC_DEFAULT_INPUT_MODE)
1427:Generated_Source\PSoC5/ADC.c ****                 #if (ADC_CFG3_INPUT_RANGE == ADC_IR_VSSA_TO_2VREF)
1428:Generated_Source\PSoC5/ADC.c ****                     ADC_AMux_Select(1u);
1429:Generated_Source\PSoC5/ADC.c ****                 #else
1430:Generated_Source\PSoC5/ADC.c ****                     ADC_AMux_Select(0u);
1431:Generated_Source\PSoC5/ADC.c ****                 #endif /* ADC_IR_VSSA_TO_2VREF) */
1432:Generated_Source\PSoC5/ADC.c ****             #endif /* ADC_DEFAULT_INPUT_MODE */
1433:Generated_Source\PSoC5/ADC.c **** 
1434:Generated_Source\PSoC5/ADC.c ****             /* Set the Conversion stop if resolution is above 16 bit and
1435:Generated_Source\PSoC5/ADC.c ****                conversion  mode is Single sample */
1436:Generated_Source\PSoC5/ADC.c ****             #if(ADC_CFG3_RESOLUTION > 16 && \
1437:Generated_Source\PSoC5/ADC.c ****                 ADC_CFG3_CONV_MODE == ADC_MODE_SINGLE_SAMPLE)
1438:Generated_Source\PSoC5/ADC.c ****                 ADC_stopConversion = 1u;
1439:Generated_Source\PSoC5/ADC.c ****             #endif /* Single sample with resolution above 16 bits */
1440:Generated_Source\PSoC5/ADC.c **** 
1441:Generated_Source\PSoC5/ADC.c ****             ADC_CountsPerVolt = (int32)ADC_CFG3_COUNTS_PER_VOLT;
1442:Generated_Source\PSoC5/ADC.c **** 
1443:Generated_Source\PSoC5/ADC.c ****             ADC_Ext_CP_Clk_SetDividerRegister(ADC_CFG3_CP_CLK_DIVIDER, 1u);
1444:Generated_Source\PSoC5/ADC.c **** 
1445:Generated_Source\PSoC5/ADC.c ****             /* This is only valid if there is an internal clock */
1446:Generated_Source\PSoC5/ADC.c ****             #if(ADC_DEFAULT_INTERNAL_CLK)
1447:Generated_Source\PSoC5/ADC.c ****                 ADC_theACLK_SetDividerRegister(ADC_CFG3_ADC_CLK_DIVIDER, 1u);
1448:Generated_Source\PSoC5/ADC.c ****             #endif /* ADC_DEFAULT_INTERNAL_CLK */
1449:Generated_Source\PSoC5/ADC.c **** 
1450:Generated_Source\PSoC5/ADC.c ****             #if(ADC_IRQ_REMOVE == 0u)
1451:Generated_Source\PSoC5/ADC.c ****                 /* Set interrupt vector */
1452:Generated_Source\PSoC5/ADC.c ****                 (void)CyIntSetVector(ADC_INTC_NUMBER, &ADC_ISR3);
1453:Generated_Source\PSoC5/ADC.c ****             #endif   /* End ADC_IRQ_REMOVE */
1454:Generated_Source\PSoC5/ADC.c ****         }
1455:Generated_Source\PSoC5/ADC.c ****     #endif /* ADC_DEFAULT_NUM_CONFIGS > 2 */
1456:Generated_Source\PSoC5/ADC.c **** 
ARM GAS  C:\Users\celua\AppData\Local\Temp\cc8imhxh.s 			page 27


1457:Generated_Source\PSoC5/ADC.c ****     #if(ADC_DEFAULT_NUM_CONFIGS > 3)
1458:Generated_Source\PSoC5/ADC.c ****         if (config == 4u)
1459:Generated_Source\PSoC5/ADC.c ****         {
1460:Generated_Source\PSoC5/ADC.c ****             /* Fourth Config */
1461:Generated_Source\PSoC5/ADC.c ****             ADC_DEC_CR_REG      = ADC_CFG4_DEC_CR;
1462:Generated_Source\PSoC5/ADC.c ****             ADC_DEC_SHIFT1_REG  = ADC_CFG4_DEC_SHIFT1;
1463:Generated_Source\PSoC5/ADC.c ****             ADC_DEC_SHIFT2_REG  = ADC_CFG4_DEC_SHIFT2;
1464:Generated_Source\PSoC5/ADC.c ****             ADC_DEC_DR2_REG     = ADC_CFG4_DEC_DR2;
1465:Generated_Source\PSoC5/ADC.c ****             ADC_DEC_DR2H_REG    = ADC_CFG4_DEC_DR2H;
1466:Generated_Source\PSoC5/ADC.c ****             ADC_DEC_DR1_REG     = ADC_CFG4_DEC_DR1;
1467:Generated_Source\PSoC5/ADC.c ****             ADC_DEC_OCOR_REG    = ADC_CFG4_DEC_OCOR;
1468:Generated_Source\PSoC5/ADC.c ****             ADC_DEC_OCORM_REG   = ADC_CFG4_DEC_OCORM;
1469:Generated_Source\PSoC5/ADC.c ****             ADC_DEC_OCORH_REG   = ADC_CFG4_DEC_OCORH;
1470:Generated_Source\PSoC5/ADC.c ****             ADC_DEC_COHER_REG   = ADC_CFG4_DEC_COHER;
1471:Generated_Source\PSoC5/ADC.c **** 
1472:Generated_Source\PSoC5/ADC.c ****             ADC_DSM_CR4_REG     = ADC_CFG4_DSM_CR4;
1473:Generated_Source\PSoC5/ADC.c ****             ADC_DSM_CR5_REG     = ADC_CFG4_DSM_CR5;
1474:Generated_Source\PSoC5/ADC.c ****             ADC_DSM_CR6_REG     = ADC_CFG4_DSM_CR6;
1475:Generated_Source\PSoC5/ADC.c ****             ADC_DSM_CR7_REG     = ADC_CFG4_DSM_CR7;
1476:Generated_Source\PSoC5/ADC.c ****             ADC_DSM_CR10_REG    = ADC_CFG4_DSM_CR10;
1477:Generated_Source\PSoC5/ADC.c ****             ADC_DSM_CR11_REG    = ADC_CFG4_DSM_CR11;
1478:Generated_Source\PSoC5/ADC.c ****             ADC_DSM_CR12_REG    = ADC_CFG4_DSM_CR12;
1479:Generated_Source\PSoC5/ADC.c ****             ADC_DSM_CR14_REG    = ADC_CFG4_DSM_CR14;
1480:Generated_Source\PSoC5/ADC.c ****             ADC_DSM_CR15_REG    = ADC_CFG4_DSM_CR15;
1481:Generated_Source\PSoC5/ADC.c ****             ADC_DSM_CR16_REG    = ADC_CFG4_DSM_CR16;
1482:Generated_Source\PSoC5/ADC.c ****             ADC_DSM_CR17_REG    = ADC_CFG4_DSM_CR17;
1483:Generated_Source\PSoC5/ADC.c ****             /* Set DSM_REF0_REG by disabling and enabling the PRESS circuit */
1484:Generated_Source\PSoC5/ADC.c ****             ADC_SetDSMRef0Reg(ADC_CFG4_DSM_REF0);
1485:Generated_Source\PSoC5/ADC.c ****             ADC_DSM_REF2_REG    = ADC_CFG4_DSM_REF2;
1486:Generated_Source\PSoC5/ADC.c ****             ADC_DSM_REF3_REG    = ADC_CFG4_DSM_REF3;
1487:Generated_Source\PSoC5/ADC.c **** 
1488:Generated_Source\PSoC5/ADC.c ****             ADC_DSM_BUF0_REG    = ADC_CFG4_DSM_BUF0;
1489:Generated_Source\PSoC5/ADC.c ****             ADC_DSM_BUF1_REG    = ADC_CFG4_DSM_BUF1;
1490:Generated_Source\PSoC5/ADC.c ****             ADC_DSM_BUF2_REG    = ADC_CFG4_DSM_BUF2;
1491:Generated_Source\PSoC5/ADC.c ****             ADC_DSM_BUF3_REG    = ADC_CFG4_DSM_BUF3;
1492:Generated_Source\PSoC5/ADC.c **** 
1493:Generated_Source\PSoC5/ADC.c ****             /* To select either Vssa or Vref to -ve input of DSM depending on
1494:Generated_Source\PSoC5/ADC.c ****             *  the input range selected.
1495:Generated_Source\PSoC5/ADC.c ****             */
1496:Generated_Source\PSoC5/ADC.c ****             #if(ADC_DEFAULT_INPUT_MODE)
1497:Generated_Source\PSoC5/ADC.c ****                 #if (ADC_CFG4_INPUT_RANGE == ADC_IR_VSSA_TO_2VREF)
1498:Generated_Source\PSoC5/ADC.c ****                     ADC_AMux_Select(1u);
1499:Generated_Source\PSoC5/ADC.c ****                 #else
1500:Generated_Source\PSoC5/ADC.c ****                     ADC_AMux_Select(0u);
1501:Generated_Source\PSoC5/ADC.c ****                 #endif /* ADC_IR_VSSA_TO_2VREF) */
1502:Generated_Source\PSoC5/ADC.c ****             #endif /* ADC_DEFAULT_INPUT_MODE */
1503:Generated_Source\PSoC5/ADC.c **** 
1504:Generated_Source\PSoC5/ADC.c ****             /* Set the Conversion stop if resolution is above 16 bit and
1505:Generated_Source\PSoC5/ADC.c ****                conversion mode is Single sample */
1506:Generated_Source\PSoC5/ADC.c ****             #if(ADC_CFG4_RESOLUTION > 16 && \
1507:Generated_Source\PSoC5/ADC.c ****                 ADC_CFG4_CONV_MODE == ADC_MODE_SINGLE_SAMPLE)
1508:Generated_Source\PSoC5/ADC.c ****                 ADC_stopConversion = 1u;
1509:Generated_Source\PSoC5/ADC.c ****             #endif /* Single sample with resolution above 16 bits */
1510:Generated_Source\PSoC5/ADC.c **** 
1511:Generated_Source\PSoC5/ADC.c ****             ADC_CountsPerVolt = (int32)ADC_CFG4_COUNTS_PER_VOLT;
1512:Generated_Source\PSoC5/ADC.c **** 
1513:Generated_Source\PSoC5/ADC.c ****             ADC_Ext_CP_Clk_SetDividerRegister(ADC_CFG4_CP_CLK_DIVIDER, 1u);
ARM GAS  C:\Users\celua\AppData\Local\Temp\cc8imhxh.s 			page 28


1514:Generated_Source\PSoC5/ADC.c **** 
1515:Generated_Source\PSoC5/ADC.c ****             /* This is only valid if there is an internal clock */
1516:Generated_Source\PSoC5/ADC.c ****             #if(ADC_DEFAULT_INTERNAL_CLK)
1517:Generated_Source\PSoC5/ADC.c ****                 ADC_theACLK_SetDividerRegister(ADC_CFG4_ADC_CLK_DIVIDER, 1u);
1518:Generated_Source\PSoC5/ADC.c ****             #endif /* ADC_DEFAULT_INTERNAL_CLK */
1519:Generated_Source\PSoC5/ADC.c **** 
1520:Generated_Source\PSoC5/ADC.c ****             #if(ADC_IRQ_REMOVE == 0u)
1521:Generated_Source\PSoC5/ADC.c ****                 /* Set interrupt vector */
1522:Generated_Source\PSoC5/ADC.c ****                 (void)CyIntSetVector(ADC_INTC_NUMBER, &ADC_ISR4);
1523:Generated_Source\PSoC5/ADC.c ****             #endif   /* End ADC_IRQ_REMOVE */
1524:Generated_Source\PSoC5/ADC.c ****         }
1525:Generated_Source\PSoC5/ADC.c ****     #endif /* ADC_DEFAULT_NUM_CONFIGS > 3 */
1526:Generated_Source\PSoC5/ADC.c **** }
1527:Generated_Source\PSoC5/ADC.c **** 
1528:Generated_Source\PSoC5/ADC.c **** 
1529:Generated_Source\PSoC5/ADC.c **** /*******************************************************************************
1530:Generated_Source\PSoC5/ADC.c **** * Function Name: ADC_SelectCofiguration
1531:Generated_Source\PSoC5/ADC.c **** ********************************************************************************
1532:Generated_Source\PSoC5/ADC.c **** *
1533:Generated_Source\PSoC5/ADC.c **** * Summary:
1534:Generated_Source\PSoC5/ADC.c **** *  Sets one of up to four ADC configurations. Before setting the new
1535:Generated_Source\PSoC5/ADC.c **** *  configuration, the ADC is stopped and powered down. After setting
1536:Generated_Source\PSoC5/ADC.c **** *  the new configuration, the ADC can be powered and conversion
1537:Generated_Source\PSoC5/ADC.c **** *  can be restarted depending up on the value of second parameter
1538:Generated_Source\PSoC5/ADC.c **** *  restart. If the value of this parameter is 1, then ADC will be
1539:Generated_Source\PSoC5/ADC.c **** *  restarted. If this value is zero, then user must call ADC_Start
1540:Generated_Source\PSoC5/ADC.c **** *  and ADC_StartConvert() to restart the conversion.
1541:Generated_Source\PSoC5/ADC.c **** *
1542:Generated_Source\PSoC5/ADC.c **** * Parameters:
1543:Generated_Source\PSoC5/ADC.c **** *  config:  configuration user wants to select.
1544:Generated_Source\PSoC5/ADC.c **** *           Valid range: 1..4
1545:Generated_Source\PSoC5/ADC.c **** *  restart:  Restart option. 1 means start the ADC and restart the conversion.
1546:Generated_Source\PSoC5/ADC.c **** *                            0 means do not start the ADC and conversion.
1547:Generated_Source\PSoC5/ADC.c **** *
1548:Generated_Source\PSoC5/ADC.c **** * Return:
1549:Generated_Source\PSoC5/ADC.c **** *  None
1550:Generated_Source\PSoC5/ADC.c **** *
1551:Generated_Source\PSoC5/ADC.c **** *******************************************************************************/
1552:Generated_Source\PSoC5/ADC.c **** void ADC_SelectConfiguration(uint8 config, uint8 restart)
1553:Generated_Source\PSoC5/ADC.c ****                                               
1554:Generated_Source\PSoC5/ADC.c **** {
1555:Generated_Source\PSoC5/ADC.c ****     /* Check whether the configuration number is valid or not */
1556:Generated_Source\PSoC5/ADC.c ****     if((config > 0u) && (config <= ADC_DEFAULT_NUM_CONFIGS))
1557:Generated_Source\PSoC5/ADC.c ****     {
1558:Generated_Source\PSoC5/ADC.c ****         /* Set the flag to ensure Start() API doesn't override the 
1559:Generated_Source\PSoC5/ADC.c **** 		*  selected configuration
1560:Generated_Source\PSoC5/ADC.c **** 		*/
1561:Generated_Source\PSoC5/ADC.c ****         if(ADC_initVar == 0u)
1562:Generated_Source\PSoC5/ADC.c ****         {
1563:Generated_Source\PSoC5/ADC.c ****             ADC_started = 1u;
1564:Generated_Source\PSoC5/ADC.c ****         }
1565:Generated_Source\PSoC5/ADC.c **** 
1566:Generated_Source\PSoC5/ADC.c ****         /* Update the config flag */
1567:Generated_Source\PSoC5/ADC.c ****         ADC_Config = config;
1568:Generated_Source\PSoC5/ADC.c **** 
1569:Generated_Source\PSoC5/ADC.c ****         /* Stop the ADC  */
1570:Generated_Source\PSoC5/ADC.c ****         ADC_Stop();
ARM GAS  C:\Users\celua\AppData\Local\Temp\cc8imhxh.s 			page 29


1571:Generated_Source\PSoC5/ADC.c **** 
1572:Generated_Source\PSoC5/ADC.c ****         /* Set the  ADC registers based on the configuration */
1573:Generated_Source\PSoC5/ADC.c ****         ADC_InitConfig(config);
1574:Generated_Source\PSoC5/ADC.c **** 
1575:Generated_Source\PSoC5/ADC.c ****         /* Compensate the gain */
1576:Generated_Source\PSoC5/ADC.c ****         ADC_DEC_GVAL_REG = ADC_gcor[config - 1u].gval;
1577:Generated_Source\PSoC5/ADC.c ****         CY_SET_REG16(ADC_DEC_GCOR_16B_PTR, ADC_gcor[config - 1u].gcor);
1578:Generated_Source\PSoC5/ADC.c **** 
1579:Generated_Source\PSoC5/ADC.c ****         if(restart == 1u)
1580:Generated_Source\PSoC5/ADC.c ****         {
1581:Generated_Source\PSoC5/ADC.c ****             /* Restart the ADC */
1582:Generated_Source\PSoC5/ADC.c ****             ADC_Start();
1583:Generated_Source\PSoC5/ADC.c **** 
1584:Generated_Source\PSoC5/ADC.c ****             /* Restart the ADC conversion */
1585:Generated_Source\PSoC5/ADC.c ****             ADC_StartConvert();
1586:Generated_Source\PSoC5/ADC.c ****         }
1587:Generated_Source\PSoC5/ADC.c ****     }
1588:Generated_Source\PSoC5/ADC.c ****     else
1589:Generated_Source\PSoC5/ADC.c ****     {
1590:Generated_Source\PSoC5/ADC.c ****         /* Halt CPU in debug mode if config is out of valid range */
1591:Generated_Source\PSoC5/ADC.c ****         CYASSERT(0u != 0u);
1592:Generated_Source\PSoC5/ADC.c ****     }
1593:Generated_Source\PSoC5/ADC.c **** }
1594:Generated_Source\PSoC5/ADC.c **** 
1595:Generated_Source\PSoC5/ADC.c **** 
1596:Generated_Source\PSoC5/ADC.c **** /*******************************************************************************
1597:Generated_Source\PSoC5/ADC.c **** * Function Name: ADC_GainCompensation
1598:Generated_Source\PSoC5/ADC.c **** ********************************************************************************
1599:Generated_Source\PSoC5/ADC.c **** *
1600:Generated_Source\PSoC5/ADC.c **** * Summary:
1601:Generated_Source\PSoC5/ADC.c **** *  This API calculates the trim value and then store this to gcor structure.
1602:Generated_Source\PSoC5/ADC.c **** *
1603:Generated_Source\PSoC5/ADC.c **** * Parameters:
1604:Generated_Source\PSoC5/ADC.c **** *  inputRange:  input range for which trim value is to be calculated.
1605:Generated_Source\PSoC5/ADC.c **** *  IdealDecGain:  Ideal Decimator gain for the selected resolution and
1606:Generated_Source\PSoC5/ADC.c **** *                 conversion  mode.
1607:Generated_Source\PSoC5/ADC.c **** *  IdealOddDecGain:  Ideal odd decimation gain for the selected resolution and
1608:Generated_Source\PSoC5/ADC.c ****                      conversion mode.
1609:Generated_Source\PSoC5/ADC.c **** *  resolution:  Resolution to select the proper flash location for trim value.
1610:Generated_Source\PSoC5/ADC.c **** *  config:      Specifies the configuration number
1611:Generated_Source\PSoC5/ADC.c **** *               Valid range: 1..4
1612:Generated_Source\PSoC5/ADC.c **** *
1613:Generated_Source\PSoC5/ADC.c **** * Return:
1614:Generated_Source\PSoC5/ADC.c **** *  None
1615:Generated_Source\PSoC5/ADC.c **** *
1616:Generated_Source\PSoC5/ADC.c **** *******************************************************************************/
1617:Generated_Source\PSoC5/ADC.c **** static void ADC_GainCompensation(uint8 inputRange, uint16 idealDecGain, uint16 idealOddDecGain,
1618:Generated_Source\PSoC5/ADC.c ****                               uint8 resolution, uint8 config) 
1619:Generated_Source\PSoC5/ADC.c **** {
  27              		.loc 1 1619 0
  28              		.cfi_startproc
  29              		@ args = 4, pretend = 0, frame = 0
  30              		@ frame_needed = 0, uses_anonymous_args = 0
  31              	.LVL0:
  32 0000 10B5     		push	{r4, lr}
  33              		.cfi_def_cfa_offset 8
  34              		.cfi_offset 4, -8
ARM GAS  C:\Users\celua\AppData\Local\Temp\cc8imhxh.s 			page 30


  35              		.cfi_offset 14, -4
  36 0002 9DF80840 		ldrb	r4, [sp, #8]	@ zero_extendqisi2
1620:Generated_Source\PSoC5/ADC.c ****     int8 flash;
1621:Generated_Source\PSoC5/ADC.c **** 	int32 normalised;
1622:Generated_Source\PSoC5/ADC.c **** 	uint16 gcorValue;
1623:Generated_Source\PSoC5/ADC.c ****     uint32 gcorTmp;
1624:Generated_Source\PSoC5/ADC.c **** 
1625:Generated_Source\PSoC5/ADC.c ****     if((config > 0u) && (config <= ADC_DEFAULT_NUM_CONFIGS))
  37              		.loc 1 1625 0
  38 0006 012C     		cmp	r4, #1
  39 0008 51D1     		bne	.L2
1626:Generated_Source\PSoC5/ADC.c ****     {
1627:Generated_Source\PSoC5/ADC.c ****         switch(inputRange)
  40              		.loc 1 1627 0
  41 000a 0138     		subs	r0, r0, #1
  42              	.LVL1:
  43 000c 0928     		cmp	r0, #9
  44 000e 2ED8     		bhi	.L16
  45 0010 DFE800F0 		tbb	[pc, r0]
  46              	.L5:
  47 0014 05       		.byte	(.L4-.L5)/2
  48 0015 2D       		.byte	(.L16-.L5)/2
  49 0016 2D       		.byte	(.L16-.L5)/2
  50 0017 05       		.byte	(.L4-.L5)/2
  51 0018 2D       		.byte	(.L16-.L5)/2
  52 0019 2D       		.byte	(.L16-.L5)/2
  53 001a 0F       		.byte	(.L6-.L5)/2
  54 001b 19       		.byte	(.L7-.L5)/2
  55 001c 2D       		.byte	(.L16-.L5)/2
  56 001d 23       		.byte	(.L8-.L5)/2
  57              		.p2align 1
  58              	.L4:
1628:Generated_Source\PSoC5/ADC.c ****         {
1629:Generated_Source\PSoC5/ADC.c ****             case ADC_IR_VNEG_VREF_DIFF:
1630:Generated_Source\PSoC5/ADC.c ****             case ADC_IR_VSSA_TO_2VREF:
1631:Generated_Source\PSoC5/ADC.c ****                 /* Normalize the flash Value */
1632:Generated_Source\PSoC5/ADC.c ****                 if(resolution > 15u)
  59              		.loc 1 1632 0
  60 001e 0F2B     		cmp	r3, #15
  61 0020 03D9     		bls	.L9
1633:Generated_Source\PSoC5/ADC.c ****                 {
1634:Generated_Source\PSoC5/ADC.c ****                     flash = ADC_DEC_TRIM_VREF_DIFF_16_20;
  62              		.loc 1 1634 0
  63 0022 2548     		ldr	r0, .L18
  64 0024 0078     		ldrb	r0, [r0]	@ zero_extendqisi2
  65 0026 40B2     		sxtb	r0, r0
  66              	.LVL2:
  67 0028 22E0     		b	.L3
  68              	.LVL3:
  69              	.L9:
1635:Generated_Source\PSoC5/ADC.c ****                 }
1636:Generated_Source\PSoC5/ADC.c ****                 else
1637:Generated_Source\PSoC5/ADC.c ****                 {
1638:Generated_Source\PSoC5/ADC.c ****                     flash = ADC_DEC_TRIM_VREF_DIFF_8_15;
  70              		.loc 1 1638 0
  71 002a 2448     		ldr	r0, .L18+4
  72 002c 0078     		ldrb	r0, [r0]	@ zero_extendqisi2
ARM GAS  C:\Users\celua\AppData\Local\Temp\cc8imhxh.s 			page 31


  73 002e 40B2     		sxtb	r0, r0
  74              	.LVL4:
  75 0030 1EE0     		b	.L3
  76              	.LVL5:
  77              	.L6:
1639:Generated_Source\PSoC5/ADC.c ****                 }
1640:Generated_Source\PSoC5/ADC.c ****                 break;
1641:Generated_Source\PSoC5/ADC.c **** 
1642:Generated_Source\PSoC5/ADC.c ****             case ADC_IR_VNEG_VREF_2_DIFF:
1643:Generated_Source\PSoC5/ADC.c ****                 /* Normalize the flash Value */
1644:Generated_Source\PSoC5/ADC.c ****                 if(resolution > 15u)
  78              		.loc 1 1644 0
  79 0032 0F2B     		cmp	r3, #15
  80 0034 03D9     		bls	.L10
1645:Generated_Source\PSoC5/ADC.c ****                 {
1646:Generated_Source\PSoC5/ADC.c ****                     flash = ADC_DEC_TRIM_VREF_2_DIFF_16_20;
  81              		.loc 1 1646 0
  82 0036 2248     		ldr	r0, .L18+8
  83 0038 0078     		ldrb	r0, [r0]	@ zero_extendqisi2
  84 003a 40B2     		sxtb	r0, r0
  85              	.LVL6:
  86 003c 18E0     		b	.L3
  87              	.LVL7:
  88              	.L10:
1647:Generated_Source\PSoC5/ADC.c ****                 }
1648:Generated_Source\PSoC5/ADC.c ****                 else
1649:Generated_Source\PSoC5/ADC.c ****                 {
1650:Generated_Source\PSoC5/ADC.c ****                     flash = ADC_DEC_TRIM_VREF_2_DIFF_8_15;
  89              		.loc 1 1650 0
  90 003e 2148     		ldr	r0, .L18+12
  91 0040 0078     		ldrb	r0, [r0]	@ zero_extendqisi2
  92 0042 40B2     		sxtb	r0, r0
  93              	.LVL8:
  94 0044 14E0     		b	.L3
  95              	.LVL9:
  96              	.L7:
1651:Generated_Source\PSoC5/ADC.c ****                 }
1652:Generated_Source\PSoC5/ADC.c ****                 break;
1653:Generated_Source\PSoC5/ADC.c **** 
1654:Generated_Source\PSoC5/ADC.c ****             case ADC_IR_VNEG_VREF_4_DIFF:
1655:Generated_Source\PSoC5/ADC.c ****                 /* Normalize the flash Value */
1656:Generated_Source\PSoC5/ADC.c ****                 if(resolution > 15u)
  97              		.loc 1 1656 0
  98 0046 0F2B     		cmp	r3, #15
  99 0048 03D9     		bls	.L11
1657:Generated_Source\PSoC5/ADC.c ****                 {
1658:Generated_Source\PSoC5/ADC.c ****                     flash = ADC_DEC_TRIM_VREF_4_DIFF_16_20;
 100              		.loc 1 1658 0
 101 004a 1F48     		ldr	r0, .L18+16
 102 004c 0078     		ldrb	r0, [r0]	@ zero_extendqisi2
 103 004e 40B2     		sxtb	r0, r0
 104              	.LVL10:
 105 0050 0EE0     		b	.L3
 106              	.LVL11:
 107              	.L11:
1659:Generated_Source\PSoC5/ADC.c ****                 }
1660:Generated_Source\PSoC5/ADC.c ****                 else
ARM GAS  C:\Users\celua\AppData\Local\Temp\cc8imhxh.s 			page 32


1661:Generated_Source\PSoC5/ADC.c ****                 {
1662:Generated_Source\PSoC5/ADC.c ****                     flash = ADC_DEC_TRIM_VREF_4_DIFF_8_15;
 108              		.loc 1 1662 0
 109 0052 1E48     		ldr	r0, .L18+20
 110 0054 0078     		ldrb	r0, [r0]	@ zero_extendqisi2
 111 0056 40B2     		sxtb	r0, r0
 112              	.LVL12:
 113 0058 0AE0     		b	.L3
 114              	.LVL13:
 115              	.L8:
1663:Generated_Source\PSoC5/ADC.c ****                 }
1664:Generated_Source\PSoC5/ADC.c ****                 break;
1665:Generated_Source\PSoC5/ADC.c **** 
1666:Generated_Source\PSoC5/ADC.c ****             case ADC_IR_VNEG_VREF_16_DIFF:
1667:Generated_Source\PSoC5/ADC.c ****                 /* Normalize the flash Value */
1668:Generated_Source\PSoC5/ADC.c ****                 if(resolution > 15u)
 116              		.loc 1 1668 0
 117 005a 0F2B     		cmp	r3, #15
 118 005c 03D9     		bls	.L12
1669:Generated_Source\PSoC5/ADC.c ****                 {
1670:Generated_Source\PSoC5/ADC.c ****                     flash = ADC_DEC_TRIM_VREF_16_DIFF_16_20;
 119              		.loc 1 1670 0
 120 005e 1C48     		ldr	r0, .L18+24
 121 0060 0078     		ldrb	r0, [r0]	@ zero_extendqisi2
 122 0062 40B2     		sxtb	r0, r0
 123              	.LVL14:
 124 0064 04E0     		b	.L3
 125              	.LVL15:
 126              	.L12:
1671:Generated_Source\PSoC5/ADC.c ****                 }
1672:Generated_Source\PSoC5/ADC.c ****                 else
1673:Generated_Source\PSoC5/ADC.c ****                 {
1674:Generated_Source\PSoC5/ADC.c ****                     flash = ADC_DEC_TRIM_VREF_16_DIFF_8_15;
 127              		.loc 1 1674 0
 128 0066 1B48     		ldr	r0, .L18+28
 129 0068 0078     		ldrb	r0, [r0]	@ zero_extendqisi2
 130 006a 40B2     		sxtb	r0, r0
 131              	.LVL16:
 132 006c 00E0     		b	.L3
 133              	.LVL17:
 134              	.L16:
1675:Generated_Source\PSoC5/ADC.c ****                 }
1676:Generated_Source\PSoC5/ADC.c ****                 break;
1677:Generated_Source\PSoC5/ADC.c **** 
1678:Generated_Source\PSoC5/ADC.c ****             default:
1679:Generated_Source\PSoC5/ADC.c ****                 flash = 0;
 135              		.loc 1 1679 0
 136 006e 0020     		movs	r0, #0
 137              	.L3:
 138              	.LVL18:
1680:Generated_Source\PSoC5/ADC.c ****                 break;
1681:Generated_Source\PSoC5/ADC.c ****         }
1682:Generated_Source\PSoC5/ADC.c **** 
1683:Generated_Source\PSoC5/ADC.c ****         /* Add two values */
1684:Generated_Source\PSoC5/ADC.c **** 		normalised = (int32)idealDecGain + ((int32)flash * 32);
 139              		.loc 1 1684 0
 140 0070 01EB4011 		add	r1, r1, r0, lsl #5
ARM GAS  C:\Users\celua\AppData\Local\Temp\cc8imhxh.s 			page 33


 141              	.LVL19:
1685:Generated_Source\PSoC5/ADC.c ****         gcorTmp = (uint32)normalised * (uint32)idealOddDecGain;
 142              		.loc 1 1685 0
 143 0074 01FB02F1 		mul	r1, r1, r2
 144              	.LVL20:
1686:Generated_Source\PSoC5/ADC.c ****         gcorValue = (uint16)(gcorTmp / ADC_IDEAL_GAIN_CONST);
 145              		.loc 1 1686 0
 146 0078 C90B     		lsrs	r1, r1, #15
 147              	.LVL21:
 148 007a 8AB2     		uxth	r2, r1
 149              	.LVL22:
1687:Generated_Source\PSoC5/ADC.c **** 
1688:Generated_Source\PSoC5/ADC.c ****         if (resolution < (ADC_MAX_GVAL - 1u))
 150              		.loc 1 1688 0
 151 007c 0D2B     		cmp	r3, #13
 152 007e 0BD8     		bhi	.L13
1689:Generated_Source\PSoC5/ADC.c ****         {
1690:Generated_Source\PSoC5/ADC.c ****             gcorValue = (gcorValue >> (ADC_MAX_GVAL - (resolution + 1u)));
 153              		.loc 1 1690 0
 154 0080 C3F10E02 		rsb	r2, r3, #14
 155              	.LVL23:
 156 0084 89B2     		uxth	r1, r1
 157 0086 1141     		asrs	r1, r1, r2
 158              	.LVL24:
 159 0088 8AB2     		uxth	r2, r1
 160              	.LVL25:
1691:Generated_Source\PSoC5/ADC.c ****             ADC_gcor[config - 1u].gval = (resolution + 1u);
 161              		.loc 1 1691 0
 162 008a 611E     		subs	r1, r4, #1
 163 008c 1248     		ldr	r0, .L18+32
 164              	.LVL26:
 165 008e 00EB8101 		add	r1, r0, r1, lsl #2
 166 0092 0133     		adds	r3, r3, #1
 167              	.LVL27:
 168 0094 8B70     		strb	r3, [r1, #2]
 169 0096 05E0     		b	.L14
 170              	.LVL28:
 171              	.L13:
1692:Generated_Source\PSoC5/ADC.c ****         }
1693:Generated_Source\PSoC5/ADC.c ****         else
1694:Generated_Source\PSoC5/ADC.c ****         {
1695:Generated_Source\PSoC5/ADC.c ****             /* Use all 16 bits */
1696:Generated_Source\PSoC5/ADC.c ****             ADC_gcor[config - 1u].gval = ADC_MAX_GVAL;
 172              		.loc 1 1696 0
 173 0098 631E     		subs	r3, r4, #1
 174              	.LVL29:
 175 009a 0F49     		ldr	r1, .L18+32
 176 009c 01EB8303 		add	r3, r1, r3, lsl #2
 177 00a0 0F21     		movs	r1, #15
 178 00a2 9970     		strb	r1, [r3, #2]
 179              	.LVL30:
 180              	.L14:
1697:Generated_Source\PSoC5/ADC.c ****         }
1698:Generated_Source\PSoC5/ADC.c **** 
1699:Generated_Source\PSoC5/ADC.c ****         /* Save the gain correction register value */
1700:Generated_Source\PSoC5/ADC.c ****         ADC_gcor[config - 1u].gcor = gcorValue;
 181              		.loc 1 1700 0
ARM GAS  C:\Users\celua\AppData\Local\Temp\cc8imhxh.s 			page 34


 182 00a4 013C     		subs	r4, r4, #1
 183 00a6 0C4B     		ldr	r3, .L18+32
 184 00a8 23F82420 		strh	r2, [r3, r4, lsl #2]	@ movhi
 185 00ac 10BD     		pop	{r4, pc}
 186              	.LVL31:
 187              	.L2:
1701:Generated_Source\PSoC5/ADC.c ****     }
1702:Generated_Source\PSoC5/ADC.c ****     else
1703:Generated_Source\PSoC5/ADC.c ****     {
1704:Generated_Source\PSoC5/ADC.c ****         /* Halt CPU in debug mode if config is out of valid range */
1705:Generated_Source\PSoC5/ADC.c ****         CYASSERT(0u != 0u);
 188              		.loc 1 1705 0 discriminator 1
 189 00ae 0020     		movs	r0, #0
 190              	.LVL32:
 191 00b0 FFF7FEFF 		bl	CyHalt
 192              	.LVL33:
 193 00b4 10BD     		pop	{r4, pc}
 194              	.LVL34:
 195              	.L19:
 196 00b6 00BF     		.align	2
 197              	.L18:
 198 00b8 18010049 		.word	1224737048
 199 00bc 1C010049 		.word	1224737052
 200 00c0 19010049 		.word	1224737049
 201 00c4 1D010049 		.word	1224737053
 202 00c8 1A010049 		.word	1224737050
 203 00cc 1E010049 		.word	1224737054
 204 00d0 1B010049 		.word	1224737051
 205 00d4 1F010049 		.word	1224737055
 206 00d8 00000000 		.word	.LANCHOR0
 207              		.cfi_endproc
 208              	.LFE21:
 209              		.size	ADC_GainCompensation, .-ADC_GainCompensation
 210              		.section	.text.ADC_SetDSMRef0Reg,"ax",%progbits
 211              		.align	2
 212              		.thumb
 213              		.thumb_func
 214              		.type	ADC_SetDSMRef0Reg, %function
 215              	ADC_SetDSMRef0Reg:
 216              	.LFB22:
1706:Generated_Source\PSoC5/ADC.c ****     }
1707:Generated_Source\PSoC5/ADC.c **** }
1708:Generated_Source\PSoC5/ADC.c **** 
1709:Generated_Source\PSoC5/ADC.c **** 
1710:Generated_Source\PSoC5/ADC.c **** /******************************************************************************
1711:Generated_Source\PSoC5/ADC.c **** * Function Name: ADC_SetDSMRef0Reg(uint8)
1712:Generated_Source\PSoC5/ADC.c **** ******************************************************************************
1713:Generated_Source\PSoC5/ADC.c **** *
1714:Generated_Source\PSoC5/ADC.c **** * Summary:
1715:Generated_Source\PSoC5/ADC.c **** *  This API sets the DSM_REF0 register. This is written for internal use.
1716:Generated_Source\PSoC5/ADC.c **** *
1717:Generated_Source\PSoC5/ADC.c **** * Parameters:
1718:Generated_Source\PSoC5/ADC.c **** *  value:  Value to be written to DSM_REF0 register.
1719:Generated_Source\PSoC5/ADC.c **** *
1720:Generated_Source\PSoC5/ADC.c **** * Return:
1721:Generated_Source\PSoC5/ADC.c **** *  None
1722:Generated_Source\PSoC5/ADC.c **** *
ARM GAS  C:\Users\celua\AppData\Local\Temp\cc8imhxh.s 			page 35


1723:Generated_Source\PSoC5/ADC.c **** ******************************************************************************/
1724:Generated_Source\PSoC5/ADC.c **** static void ADC_SetDSMRef0Reg(uint8 value) 
1725:Generated_Source\PSoC5/ADC.c **** {
 217              		.loc 1 1725 0
 218              		.cfi_startproc
 219              		@ args = 0, pretend = 0, frame = 0
 220              		@ frame_needed = 0, uses_anonymous_args = 0
 221              	.LVL35:
 222 0000 F8B5     		push	{r3, r4, r5, r6, r7, lr}
 223              		.cfi_def_cfa_offset 24
 224              		.cfi_offset 3, -24
 225              		.cfi_offset 4, -20
 226              		.cfi_offset 5, -16
 227              		.cfi_offset 6, -12
 228              		.cfi_offset 7, -8
 229              		.cfi_offset 14, -4
 230 0002 0746     		mov	r7, r0
1726:Generated_Source\PSoC5/ADC.c ****     uint8 enableInterrupts;
1727:Generated_Source\PSoC5/ADC.c ****     enableInterrupts = CyEnterCriticalSection();
 231              		.loc 1 1727 0
 232 0004 FFF7FEFF 		bl	CyEnterCriticalSection
 233              	.LVL36:
 234 0008 0646     		mov	r6, r0
 235              	.LVL37:
1728:Generated_Source\PSoC5/ADC.c **** 
1729:Generated_Source\PSoC5/ADC.c ****     /* Disable PRES, Enable power to VCMBUF0, REFBUF0 and REFBUF1, enable PRES */
1730:Generated_Source\PSoC5/ADC.c ****     ADC_RESET_CR4_REG |= (ADC_IGNORE_PRESA1 | ADC_IGNORE_PRESD1);
 236              		.loc 1 1730 0
 237 000a 0D4D     		ldr	r5, .L22
 238 000c 2B78     		ldrb	r3, [r5]	@ zero_extendqisi2
 239 000e 43F00303 		orr	r3, r3, #3
 240 0012 2B70     		strb	r3, [r5]
1731:Generated_Source\PSoC5/ADC.c ****     ADC_RESET_CR5_REG |= (ADC_IGNORE_PRESA2 | ADC_IGNORE_PRESD2);
 241              		.loc 1 1731 0
 242 0014 0B4C     		ldr	r4, .L22+4
 243 0016 2378     		ldrb	r3, [r4]	@ zero_extendqisi2
 244 0018 43F00303 		orr	r3, r3, #3
 245 001c 2370     		strb	r3, [r4]
1732:Generated_Source\PSoC5/ADC.c ****     ADC_DSM_REF0_REG = value;
 246              		.loc 1 1732 0
 247 001e 0A4B     		ldr	r3, .L22+8
 248 0020 1F70     		strb	r7, [r3]
1733:Generated_Source\PSoC5/ADC.c **** 
1734:Generated_Source\PSoC5/ADC.c ****     /* Wait for 3 microseconds */
1735:Generated_Source\PSoC5/ADC.c ****     CyDelayUs(ADC_PRES_DELAY_TIME);
 249              		.loc 1 1735 0
 250 0022 0320     		movs	r0, #3
 251 0024 FFF7FEFF 		bl	CyDelayUs
 252              	.LVL38:
1736:Generated_Source\PSoC5/ADC.c ****     /* Enable the press circuit */
1737:Generated_Source\PSoC5/ADC.c ****     ADC_RESET_CR4_REG &= (uint8)~(ADC_IGNORE_PRESA1 | ADC_IGNORE_PRESD1);
 253              		.loc 1 1737 0
 254 0028 2B78     		ldrb	r3, [r5]	@ zero_extendqisi2
 255 002a 03F0FC03 		and	r3, r3, #252
 256 002e 2B70     		strb	r3, [r5]
1738:Generated_Source\PSoC5/ADC.c ****     ADC_RESET_CR5_REG &= (uint8)~(ADC_IGNORE_PRESA2 | ADC_IGNORE_PRESD2);
 257              		.loc 1 1738 0
ARM GAS  C:\Users\celua\AppData\Local\Temp\cc8imhxh.s 			page 36


 258 0030 2378     		ldrb	r3, [r4]	@ zero_extendqisi2
 259 0032 03F0FC03 		and	r3, r3, #252
 260 0036 2370     		strb	r3, [r4]
1739:Generated_Source\PSoC5/ADC.c **** 
1740:Generated_Source\PSoC5/ADC.c ****     CyExitCriticalSection(enableInterrupts);
 261              		.loc 1 1740 0
 262 0038 3046     		mov	r0, r6
 263 003a FFF7FEFF 		bl	CyExitCriticalSection
 264              	.LVL39:
 265 003e F8BD     		pop	{r3, r4, r5, r6, r7, pc}
 266              	.LVL40:
 267              	.L23:
 268              		.align	2
 269              	.L22:
 270 0040 F8460040 		.word	1073759992
 271 0044 F9460040 		.word	1073759993
 272 0048 92580040 		.word	1073764498
 273              		.cfi_endproc
 274              	.LFE22:
 275              		.size	ADC_SetDSMRef0Reg, .-ADC_SetDSMRef0Reg
 276              		.section	.text.ADC_InitConfig,"ax",%progbits
 277              		.align	2
 278              		.thumb
 279              		.thumb_func
 280              		.type	ADC_InitConfig, %function
 281              	ADC_InitConfig:
 282              	.LFB19:
1243:Generated_Source\PSoC5/ADC.c ****     ADC_stopConversion = 0u;
 283              		.loc 1 1243 0
 284              		.cfi_startproc
 285              		@ args = 0, pretend = 0, frame = 0
 286              		@ frame_needed = 0, uses_anonymous_args = 0
 287              	.LVL41:
1244:Generated_Source\PSoC5/ADC.c **** 
 288              		.loc 1 1244 0
 289 0000 0022     		movs	r2, #0
 290 0002 334B     		ldr	r3, .L28
 291 0004 1A71     		strb	r2, [r3, #4]
1246:Generated_Source\PSoC5/ADC.c ****     {
 292              		.loc 1 1246 0
 293 0006 0128     		cmp	r0, #1
 294 0008 60D1     		bne	.L27
1243:Generated_Source\PSoC5/ADC.c ****     ADC_stopConversion = 0u;
 295              		.loc 1 1243 0
 296 000a 70B5     		push	{r4, r5, r6, lr}
 297              		.cfi_def_cfa_offset 16
 298              		.cfi_offset 4, -16
 299              		.cfi_offset 5, -12
 300              		.cfi_offset 6, -8
 301              		.cfi_offset 14, -4
1249:Generated_Source\PSoC5/ADC.c ****         ADC_DEC_SHIFT1_REG  = ADC_CFG1_DEC_SHIFT1;
 302              		.loc 1 1249 0
 303 000c 7822     		movs	r2, #120
 304 000e 314B     		ldr	r3, .L28+4
 305 0010 1A70     		strb	r2, [r3]
1250:Generated_Source\PSoC5/ADC.c ****         ADC_DEC_SHIFT2_REG  = ADC_CFG1_DEC_SHIFT2;
 306              		.loc 1 1250 0
ARM GAS  C:\Users\celua\AppData\Local\Temp\cc8imhxh.s 			page 37


 307 0012 0422     		movs	r2, #4
 308 0014 0233     		adds	r3, r3, #2
 309 0016 1A70     		strb	r2, [r3]
1251:Generated_Source\PSoC5/ADC.c ****         ADC_DEC_DR2_REG     = ADC_CFG1_DEC_DR2;
 310              		.loc 1 1251 0
 311 0018 0822     		movs	r2, #8
 312 001a 0133     		adds	r3, r3, #1
 313 001c 1A70     		strb	r2, [r3]
1252:Generated_Source\PSoC5/ADC.c ****         ADC_DEC_DR2H_REG    = ADC_CFG1_DEC_DR2H;
 314              		.loc 1 1252 0
 315 001e 0F22     		movs	r2, #15
 316 0020 0133     		adds	r3, r3, #1
 317 0022 1A70     		strb	r2, [r3]
1253:Generated_Source\PSoC5/ADC.c ****         ADC_DEC_DR1_REG     = ADC_CFG1_DEC_DR1;
 318              		.loc 1 1253 0
 319 0024 0024     		movs	r4, #0
 320 0026 0133     		adds	r3, r3, #1
 321 0028 1C70     		strb	r4, [r3]
1254:Generated_Source\PSoC5/ADC.c ****         ADC_DEC_OCOR_REG    = ADC_CFG1_DEC_OCOR;
 322              		.loc 1 1254 0
 323 002a 3F22     		movs	r2, #63
 324 002c 0133     		adds	r3, r3, #1
 325 002e 1A70     		strb	r2, [r3]
1255:Generated_Source\PSoC5/ADC.c ****         ADC_DEC_OCORM_REG   = ADC_CFG1_DEC_OCORM;
 326              		.loc 1 1255 0
 327 0030 0233     		adds	r3, r3, #2
 328 0032 1C70     		strb	r4, [r3]
1256:Generated_Source\PSoC5/ADC.c ****         ADC_DEC_OCORH_REG   = ADC_CFG1_DEC_OCORH;
 329              		.loc 1 1256 0
 330 0034 0133     		adds	r3, r3, #1
 331 0036 1C70     		strb	r4, [r3]
1257:Generated_Source\PSoC5/ADC.c ****         ADC_DEC_COHER_REG   = ADC_CFG1_DEC_COHER;
 332              		.loc 1 1257 0
 333 0038 0133     		adds	r3, r3, #1
 334 003a 1C70     		strb	r4, [r3]
1258:Generated_Source\PSoC5/ADC.c **** 
 335              		.loc 1 1258 0
 336 003c 0125     		movs	r5, #1
 337 003e 0A33     		adds	r3, r3, #10
 338 0040 1D70     		strb	r5, [r3]
1260:Generated_Source\PSoC5/ADC.c ****         ADC_DSM_CR5_REG     = ADC_CFG1_DSM_CR5;
 339              		.loc 1 1260 0
 340 0042 5022     		movs	r2, #80
 341 0044 03F52763 		add	r3, r3, #2672
 342 0048 1A70     		strb	r2, [r3]
1261:Generated_Source\PSoC5/ADC.c ****         ADC_DSM_CR6_REG     = ADC_CFG1_DSM_CR6;
 343              		.loc 1 1261 0
 344 004a 0A22     		movs	r2, #10
 345 004c 0133     		adds	r3, r3, #1
 346 004e 1A70     		strb	r2, [r3]
1262:Generated_Source\PSoC5/ADC.c ****         ADC_DSM_CR7_REG     = ADC_CFG1_DSM_CR7;
 347              		.loc 1 1262 0
 348 0050 2C22     		movs	r2, #44
 349 0052 0133     		adds	r3, r3, #1
 350 0054 1A70     		strb	r2, [r3]
1263:Generated_Source\PSoC5/ADC.c ****         ADC_DSM_CR10_REG    = ADC_CFG1_DSM_CR10;
 351              		.loc 1 1263 0
ARM GAS  C:\Users\celua\AppData\Local\Temp\cc8imhxh.s 			page 38


 352 0056 0133     		adds	r3, r3, #1
 353 0058 1C70     		strb	r4, [r3]
1264:Generated_Source\PSoC5/ADC.c ****         ADC_DSM_CR11_REG    = ADC_CFG1_DSM_CR11;
 354              		.loc 1 1264 0
 355 005a 4422     		movs	r2, #68
 356 005c 0333     		adds	r3, r3, #3
 357 005e 1A70     		strb	r2, [r3]
1265:Generated_Source\PSoC5/ADC.c ****         ADC_DSM_CR12_REG    = ADC_CFG1_DSM_CR12;
 358              		.loc 1 1265 0
 359 0060 4822     		movs	r2, #72
 360 0062 0133     		adds	r3, r3, #1
 361 0064 1A70     		strb	r2, [r3]
1266:Generated_Source\PSoC5/ADC.c ****         ADC_DSM_CR14_REG    = ADC_CFG1_DSM_CR14;
 362              		.loc 1 1266 0
 363 0066 0133     		adds	r3, r3, #1
 364 0068 1D70     		strb	r5, [r3]
1267:Generated_Source\PSoC5/ADC.c ****         ADC_DSM_CR15_REG    = ADC_CFG1_DSM_CR15;
 365              		.loc 1 1267 0
 366 006a 0226     		movs	r6, #2
 367 006c 0233     		adds	r3, r3, #2
 368 006e 1E70     		strb	r6, [r3]
1268:Generated_Source\PSoC5/ADC.c ****         ADC_DSM_CR16_REG    = ADC_CFG1_DSM_CR16;
 369              		.loc 1 1268 0
 370 0070 1222     		movs	r2, #18
 371 0072 0133     		adds	r3, r3, #1
 372 0074 1A70     		strb	r2, [r3]
1269:Generated_Source\PSoC5/ADC.c ****         ADC_DSM_CR17_REG    = ADC_CFG1_DSM_CR17;
 373              		.loc 1 1269 0
 374 0076 2822     		movs	r2, #40
 375 0078 0133     		adds	r3, r3, #1
 376 007a 1A70     		strb	r2, [r3]
1270:Generated_Source\PSoC5/ADC.c ****         /* Set DSM_REF0_REG by disabling and enabling the PRESS circuit */
 377              		.loc 1 1270 0
 378 007c EB22     		movs	r2, #235
 379 007e 0133     		adds	r3, r3, #1
 380 0080 1A70     		strb	r2, [r3]
1272:Generated_Source\PSoC5/ADC.c ****         ADC_DSM_REF2_REG    = ADC_CFG1_DSM_REF2;
 381              		.loc 1 1272 0
 382 0082 5220     		movs	r0, #82
 383              	.LVL42:
 384 0084 FFF7FEFF 		bl	ADC_SetDSMRef0Reg
 385              	.LVL43:
1273:Generated_Source\PSoC5/ADC.c ****         ADC_DSM_REF3_REG    = ADC_CFG1_DSM_REF3;
 386              		.loc 1 1273 0
 387 0088 5822     		movs	r2, #88
 388 008a 134B     		ldr	r3, .L28+8
 389 008c 1A70     		strb	r2, [r3]
1274:Generated_Source\PSoC5/ADC.c **** 
 390              		.loc 1 1274 0
 391 008e 0133     		adds	r3, r3, #1
 392 0090 1C70     		strb	r4, [r3]
1276:Generated_Source\PSoC5/ADC.c ****         ADC_DSM_BUF1_REG    = ADC_CFG1_DSM_BUF1;
 393              		.loc 1 1276 0
 394 0092 0522     		movs	r2, #5
 395 0094 0533     		adds	r3, r3, #5
 396 0096 1A70     		strb	r2, [r3]
1277:Generated_Source\PSoC5/ADC.c ****         ADC_DSM_BUF2_REG    = ADC_CFG1_DSM_BUF2;
ARM GAS  C:\Users\celua\AppData\Local\Temp\cc8imhxh.s 			page 39


 397              		.loc 1 1277 0
 398 0098 0133     		adds	r3, r3, #1
 399 009a 1E70     		strb	r6, [r3]
1278:Generated_Source\PSoC5/ADC.c ****         ADC_DSM_BUF3_REG    = ADC_CFG1_DSM_BUF3;
 400              		.loc 1 1278 0
 401 009c 0133     		adds	r3, r3, #1
 402 009e 1C70     		strb	r4, [r3]
1279:Generated_Source\PSoC5/ADC.c **** 
 403              		.loc 1 1279 0
 404 00a0 0133     		adds	r3, r3, #1
 405 00a2 1C70     		strb	r4, [r3]
1288:Generated_Source\PSoC5/ADC.c ****             #endif /* ADC_IR_VSSA_TO_2VREF) */
 406              		.loc 1 1288 0
 407 00a4 2046     		mov	r0, r4
 408 00a6 FFF7FEFF 		bl	ADC_AMux_Select
 409              	.LVL44:
1300:Generated_Source\PSoC5/ADC.c **** 
 410              		.loc 1 1300 0
 411 00aa 4CF6CD42 		movw	r2, #52429
 412 00ae 0B4B     		ldr	r3, .L28+12
 413 00b0 1A60     		str	r2, [r3]
1302:Generated_Source\PSoC5/ADC.c **** 
 414              		.loc 1 1302 0
 415 00b2 2946     		mov	r1, r5
 416 00b4 2846     		mov	r0, r5
 417 00b6 FFF7FEFF 		bl	ADC_Ext_CP_Clk_SetDividerRegister
 418              	.LVL45:
1306:Generated_Source\PSoC5/ADC.c ****         #endif /* ADC_DEFAULT_INTERNAL_CLK */
 419              		.loc 1 1306 0
 420 00ba 2946     		mov	r1, r5
 421 00bc 0920     		movs	r0, #9
 422 00be FFF7FEFF 		bl	ADC_theACLK_SetDividerRegister
 423              	.LVL46:
1311:Generated_Source\PSoC5/ADC.c ****         #endif   /* End ADC_IRQ_REMOVE */
 424              		.loc 1 1311 0
 425 00c2 0749     		ldr	r1, .L28+16
 426 00c4 1D20     		movs	r0, #29
 427 00c6 FFF7FEFF 		bl	CyIntSetVector
 428              	.LVL47:
 429 00ca 70BD     		pop	{r4, r5, r6, pc}
 430              	.LVL48:
 431              	.L27:
 432              		.cfi_def_cfa_offset 0
 433              		.cfi_restore 4
 434              		.cfi_restore 5
 435              		.cfi_restore 6
 436              		.cfi_restore 14
 437 00cc 7047     		bx	lr
 438              	.L29:
 439 00ce 00BF     		.align	2
 440              	.L28:
 441 00d0 00000000 		.word	.LANCHOR0
 442 00d4 004E0040 		.word	1073761792
 443 00d8 94580040 		.word	1073764500
 444 00dc 00000000 		.word	ADC_CountsPerVolt
 445 00e0 00000000 		.word	ADC_ISR1
 446              		.cfi_endproc
ARM GAS  C:\Users\celua\AppData\Local\Temp\cc8imhxh.s 			page 40


 447              	.LFE19:
 448              		.size	ADC_InitConfig, .-ADC_InitConfig
 449              		.section	.text.ADC_Init,"ax",%progbits
 450              		.align	2
 451              		.global	ADC_Init
 452              		.thumb
 453              		.thumb_func
 454              		.type	ADC_Init, %function
 455              	ADC_Init:
 456              	.LFB0:
  92:Generated_Source\PSoC5/ADC.c **** 
 457              		.loc 1 92 0
 458              		.cfi_startproc
 459              		@ args = 0, pretend = 0, frame = 0
 460              		@ frame_needed = 0, uses_anonymous_args = 0
 461 0000 F0B5     		push	{r4, r5, r6, r7, lr}
 462              		.cfi_def_cfa_offset 20
 463              		.cfi_offset 4, -20
 464              		.cfi_offset 5, -16
 465              		.cfi_offset 6, -12
 466              		.cfi_offset 7, -8
 467              		.cfi_offset 14, -4
 468 0002 83B0     		sub	sp, sp, #12
 469              		.cfi_def_cfa_offset 32
  94:Generated_Source\PSoC5/ADC.c ****     ADC_convDone = 0u;
 470              		.loc 1 94 0
 471 0004 284D     		ldr	r5, .L32
 472 0006 0127     		movs	r7, #1
 473 0008 2F70     		strb	r7, [r5]
  95:Generated_Source\PSoC5/ADC.c **** 
 474              		.loc 1 95 0
 475 000a 284E     		ldr	r6, .L32+4
 476 000c 0024     		movs	r4, #0
 477 000e 7471     		strb	r4, [r6, #5]
  97:Generated_Source\PSoC5/ADC.c **** 
 478              		.loc 1 97 0
 479 0010 1020     		movs	r0, #16
 480 0012 FFF7FEFF 		bl	ADC_Ext_CP_Clk_SetModeRegister
 481              	.LVL49:
 101:Generated_Source\PSoC5/ADC.c ****     #endif /* ADC_DEFAULT_INTERNAL_CLK */
 482              		.loc 1 101 0
 483 0016 1020     		movs	r0, #16
 484 0018 FFF7FEFF 		bl	ADC_theACLK_SetModeRegister
 485              	.LVL50:
 106:Generated_Source\PSoC5/ADC.c ****     #endif   /* End ADC_IRQ_REMOVE */
 486              		.loc 1 106 0
 487 001c 0721     		movs	r1, #7
 488 001e 1D20     		movs	r0, #29
 489 0020 FFF7FEFF 		bl	CyIntSetPriority
 490              	.LVL51:
 110:Generated_Source\PSoC5/ADC.c ****     ADC_DSM_DEM1_REG    = ADC_CFG1_DSM_DEM1;
 491              		.loc 1 110 0
 492 0024 0422     		movs	r2, #4
 493 0026 224B     		ldr	r3, .L32+8
 494 0028 1A70     		strb	r2, [r3]
 111:Generated_Source\PSoC5/ADC.c ****     ADC_DSM_MISC_REG    = ADC_CFG1_DSM_MISC;
 495              		.loc 1 111 0
ARM GAS  C:\Users\celua\AppData\Local\Temp\cc8imhxh.s 			page 41


 496 002a 0133     		adds	r3, r3, #1
 497 002c 1C70     		strb	r4, [r3]
 112:Generated_Source\PSoC5/ADC.c ****     ADC_DSM_CLK_REG    |= ADC_CFG1_DSM_CLK;
 498              		.loc 1 112 0
 499 002e 0733     		adds	r3, r3, #7
 500 0030 1C70     		strb	r4, [r3]
 113:Generated_Source\PSoC5/ADC.c ****     ADC_DSM_REF1_REG    = ADC_CFG1_DSM_REF1;
 501              		.loc 1 113 0
 502 0032 204A     		ldr	r2, .L32+12
 503 0034 1378     		ldrb	r3, [r2]	@ zero_extendqisi2
 504 0036 43F01803 		orr	r3, r3, #24
 505 003a 1370     		strb	r3, [r2]
 114:Generated_Source\PSoC5/ADC.c **** 
 506              		.loc 1 114 0
 507 003c 1E4B     		ldr	r3, .L32+16
 508 003e 1C70     		strb	r4, [r3]
 116:Generated_Source\PSoC5/ADC.c ****     ADC_DSM_OUT1_REG    = ADC_CFG1_DSM_OUT1;
 509              		.loc 1 116 0
 510 0040 03F2F523 		addw	r3, r3, #757
 511 0044 1C70     		strb	r4, [r3]
 117:Generated_Source\PSoC5/ADC.c **** 
 512              		.loc 1 117 0
 513 0046 0133     		adds	r3, r3, #1
 514 0048 1C70     		strb	r4, [r3]
 119:Generated_Source\PSoC5/ADC.c ****     ADC_DSM_CR1_REG     = ADC_CFG1_DSM_CR1;
 515              		.loc 1 119 0
 516 004a 0A22     		movs	r2, #10
 517 004c A3F20933 		subw	r3, r3, #777
 518 0050 1A70     		strb	r2, [r3]
 120:Generated_Source\PSoC5/ADC.c **** #if(ADC_MI_ENABLE != 0u) /* Enable Modulator Input */
 519              		.loc 1 120 0
 520 0052 0133     		adds	r3, r3, #1
 521 0054 1C70     		strb	r4, [r3]
 124:Generated_Source\PSoC5/ADC.c **** #endif /* ADC_MI_ENABLE != 0u*/    
 522              		.loc 1 124 0
 523 0056 0233     		adds	r3, r3, #2
 524 0058 1C70     		strb	r4, [r3]
 126:Generated_Source\PSoC5/ADC.c ****     ADC_DSM_CR9_REG     = ADC_CFG1_DSM_CR9;
 525              		.loc 1 126 0
 526 005a 5B22     		movs	r2, #91
 527 005c 0533     		adds	r3, r3, #5
 528 005e 1A70     		strb	r2, [r3]
 127:Generated_Source\PSoC5/ADC.c ****     ADC_DSM_CR13_REG    = ADC_CFG1_DSM_CR13;
 529              		.loc 1 127 0
 530 0060 5E22     		movs	r2, #94
 531 0062 0133     		adds	r3, r3, #1
 532 0064 1A70     		strb	r2, [r3]
 128:Generated_Source\PSoC5/ADC.c **** 
 533              		.loc 1 128 0
 534 0066 0433     		adds	r3, r3, #4
 535 0068 1C70     		strb	r4, [r3]
 130:Generated_Source\PSoC5/ADC.c **** 
 536              		.loc 1 130 0
 537 006a 1422     		movs	r2, #20
 538 006c A3F68C23 		subw	r3, r3, #2700
 539 0070 1A70     		strb	r2, [r3]
 133:Generated_Source\PSoC5/ADC.c ****                                       ADC_CFG1_IDEAL_DEC_GAIN,
ARM GAS  C:\Users\celua\AppData\Local\Temp\cc8imhxh.s 			page 42


 540              		.loc 1 133 0
 541 0072 0097     		str	r7, [sp]
 542 0074 1223     		movs	r3, #18
 543 0076 4FF40042 		mov	r2, #32768
 544 007a 48F6F051 		movw	r1, #36336
 545 007e 0220     		movs	r0, #2
 546 0080 FFF7FEFF 		bl	ADC_GainCompensation
 547              	.LVL52:
 161:Generated_Source\PSoC5/ADC.c ****     CY_SET_REG16(ADC_DEC_GCOR_16B_PTR, ADC_gcor[ADC_Config - 1u].gcor);
 548              		.loc 1 161 0
 549 0084 2B78     		ldrb	r3, [r5]	@ zero_extendqisi2
 550 0086 013B     		subs	r3, r3, #1
 551 0088 06EB8303 		add	r3, r6, r3, lsl #2
 552 008c 9A78     		ldrb	r2, [r3, #2]	@ zero_extendqisi2
 553 008e 0B4B     		ldr	r3, .L32+20
 554 0090 1A70     		strb	r2, [r3]
 162:Generated_Source\PSoC5/ADC.c **** 
 555              		.loc 1 162 0
 556 0092 2B78     		ldrb	r3, [r5]	@ zero_extendqisi2
 557 0094 013B     		subs	r3, r3, #1
 558 0096 36F82320 		ldrh	r2, [r6, r3, lsl #2]
 559 009a 094B     		ldr	r3, .L32+24
 560 009c 1A80     		strh	r2, [r3]	@ movhi
 165:Generated_Source\PSoC5/ADC.c **** }
 561              		.loc 1 165 0
 562 009e 2878     		ldrb	r0, [r5]	@ zero_extendqisi2
 563 00a0 FFF7FEFF 		bl	ADC_InitConfig
 564              	.LVL53:
 166:Generated_Source\PSoC5/ADC.c **** 
 565              		.loc 1 166 0
 566 00a4 03B0     		add	sp, sp, #12
 567              		.cfi_def_cfa_offset 20
 568              		@ sp needed
 569 00a6 F0BD     		pop	{r4, r5, r6, r7, pc}
 570              	.L33:
 571              		.align	2
 572              	.L32:
 573 00a8 00000000 		.word	.LANCHOR1
 574 00ac 00000000 		.word	.LANCHOR0
 575 00b0 96580040 		.word	1073764502
 576 00b4 075B0040 		.word	1073765127
 577 00b8 93580040 		.word	1073764499
 578 00bc 0E4E0040 		.word	1073761806
 579 00c0 0C4E0040 		.word	1073761804
 580              		.cfi_endproc
 581              	.LFE0:
 582              		.size	ADC_Init, .-ADC_Init
 583              		.section	.text.ADC_Enable,"ax",%progbits
 584              		.align	2
 585              		.global	ADC_Enable
 586              		.thumb
 587              		.thumb_func
 588              		.type	ADC_Enable, %function
 589              	ADC_Enable:
 590              	.LFB1:
 185:Generated_Source\PSoC5/ADC.c **** 	uint8 config;
 591              		.loc 1 185 0
ARM GAS  C:\Users\celua\AppData\Local\Temp\cc8imhxh.s 			page 43


 592              		.cfi_startproc
 593              		@ args = 0, pretend = 0, frame = 0
 594              		@ frame_needed = 0, uses_anonymous_args = 0
 595 0000 70B5     		push	{r4, r5, r6, lr}
 596              		.cfi_def_cfa_offset 16
 597              		.cfi_offset 4, -16
 598              		.cfi_offset 5, -12
 599              		.cfi_offset 6, -8
 600              		.cfi_offset 14, -4
 188:Generated_Source\PSoC5/ADC.c **** 
 601              		.loc 1 188 0
 602 0002 FFF7FEFF 		bl	CyEnterCriticalSection
 603              	.LVL54:
 604 0006 0646     		mov	r6, r0
 605              	.LVL55:
 191:Generated_Source\PSoC5/ADC.c ****     
 606              		.loc 1 191 0
 607 0008 2A4B     		ldr	r3, .L36
 608 000a 1B78     		ldrb	r3, [r3]	@ zero_extendqisi2
 609              	.LVL56:
 194:Generated_Source\PSoC5/ADC.c ****     ADC_PWRMGR_DSM_REG |= ADC_ACT_PWR_DSM_EN;
 610              		.loc 1 194 0
 611 000c 2A4B     		ldr	r3, .L36+4
 612 000e 1A78     		ldrb	r2, [r3]	@ zero_extendqisi2
 613 0010 42F00102 		orr	r2, r2, #1
 614 0014 1A70     		strb	r2, [r3]
 195:Generated_Source\PSoC5/ADC.c **** 
 615              		.loc 1 195 0
 616 0016 1A78     		ldrb	r2, [r3]	@ zero_extendqisi2
 617 0018 42F01002 		orr	r2, r2, #16
 618 001c 1A70     		strb	r2, [r3]
 198:Generated_Source\PSoC5/ADC.c ****     ADC_STBY_PWRMGR_DSM_REG |= ADC_STBY_PWR_DSM_EN;
 619              		.loc 1 198 0
 620 001e 1033     		adds	r3, r3, #16
 621 0020 1A78     		ldrb	r2, [r3]	@ zero_extendqisi2
 622 0022 42F00102 		orr	r2, r2, #1
 623 0026 1A70     		strb	r2, [r3]
 199:Generated_Source\PSoC5/ADC.c **** 
 624              		.loc 1 199 0
 625 0028 1A78     		ldrb	r2, [r3]	@ zero_extendqisi2
 626 002a 42F01002 		orr	r2, r2, #16
 627 002e 1A70     		strb	r2, [r3]
 202:Generated_Source\PSoC5/ADC.c ****     ADC_RESET_CR5_REG |= ADC_IGNORE_PRESA2;
 628              		.loc 1 202 0
 629 0030 224D     		ldr	r5, .L36+8
 630 0032 2B78     		ldrb	r3, [r5]	@ zero_extendqisi2
 631 0034 43F00203 		orr	r3, r3, #2
 632 0038 2B70     		strb	r3, [r5]
 203:Generated_Source\PSoC5/ADC.c **** 
 633              		.loc 1 203 0
 634 003a 214C     		ldr	r4, .L36+12
 635 003c 2378     		ldrb	r3, [r4]	@ zero_extendqisi2
 636 003e 43F00203 		orr	r3, r3, #2
 637 0042 2370     		strb	r3, [r4]
 205:Generated_Source\PSoC5/ADC.c **** 
 638              		.loc 1 205 0
 639 0044 1F4A     		ldr	r2, .L36+16
ARM GAS  C:\Users\celua\AppData\Local\Temp\cc8imhxh.s 			page 44


 640 0046 1378     		ldrb	r3, [r2]	@ zero_extendqisi2
 641 0048 43F00303 		orr	r3, r3, #3
 642 004c 1370     		strb	r3, [r2]
 271:Generated_Source\PSoC5/ADC.c **** 
 643              		.loc 1 271 0
 644 004e 0320     		movs	r0, #3
 645 0050 FFF7FEFF 		bl	CyDelayUs
 646              	.LVL57:
 274:Generated_Source\PSoC5/ADC.c ****     ADC_RESET_CR5_REG &= (uint8)~ADC_IGNORE_PRESA2;
 647              		.loc 1 274 0
 648 0054 2B78     		ldrb	r3, [r5]	@ zero_extendqisi2
 649 0056 03F0FD03 		and	r3, r3, #253
 650 005a 2B70     		strb	r3, [r5]
 275:Generated_Source\PSoC5/ADC.c **** 
 651              		.loc 1 275 0
 652 005c 2378     		ldrb	r3, [r4]	@ zero_extendqisi2
 653 005e 03F0FD03 		and	r3, r3, #253
 654 0062 2370     		strb	r3, [r4]
 278:Generated_Source\PSoC5/ADC.c **** 
 655              		.loc 1 278 0
 656 0064 184A     		ldr	r2, .L36+20
 657 0066 1378     		ldrb	r3, [r2]	@ zero_extendqisi2
 658 0068 43F00603 		orr	r3, r3, #6
 659 006c 1370     		strb	r3, [r2]
 281:Generated_Source\PSoC5/ADC.c **** 
 660              		.loc 1 281 0
 661 006e 7A22     		movs	r2, #122
 662 0070 164B     		ldr	r3, .L36+24
 663 0072 1A70     		strb	r2, [r3]
 285:Generated_Source\PSoC5/ADC.c ****         ADC_STBY_PWRMGR_CLK_REG |= ADC_STBY_PWR_CLK_EN;
 664              		.loc 1 285 0
 665 0074 164A     		ldr	r2, .L36+28
 666 0076 1378     		ldrb	r3, [r2]	@ zero_extendqisi2
 667 0078 43F00103 		orr	r3, r3, #1
 668 007c 1370     		strb	r3, [r2]
 286:Generated_Source\PSoC5/ADC.c ****     #endif /* ADC_DEFAULT_INTERNAL_CLK */
 669              		.loc 1 286 0
 670 007e 1032     		adds	r2, r2, #16
 671 0080 1378     		ldrb	r3, [r2]	@ zero_extendqisi2
 672 0082 43F00103 		orr	r3, r3, #1
 673 0086 1370     		strb	r3, [r2]
 290:Generated_Source\PSoC5/ADC.c ****     ADC_STBY_PWRMGR_CHARGE_PUMP_CLK_REG |= ADC_STBY_PWR_CHARGE_PUMP_CLK_EN;
 674              		.loc 1 290 0
 675 0088 0F3A     		subs	r2, r2, #15
 676 008a 1378     		ldrb	r3, [r2]	@ zero_extendqisi2
 677 008c 43F00103 		orr	r3, r3, #1
 678 0090 1370     		strb	r3, [r2]
 291:Generated_Source\PSoC5/ADC.c **** 
 679              		.loc 1 291 0
 680 0092 1032     		adds	r2, r2, #16
 681 0094 1378     		ldrb	r3, [r2]	@ zero_extendqisi2
 682 0096 43F00103 		orr	r3, r3, #1
 683 009a 1370     		strb	r3, [r2]
 295:Generated_Source\PSoC5/ADC.c ****         /* Enable interrupt */
 684              		.loc 1 295 0
 685 009c 4FF00053 		mov	r3, #536870912
 686 00a0 0C4A     		ldr	r2, .L36+32
ARM GAS  C:\Users\celua\AppData\Local\Temp\cc8imhxh.s 			page 45


 687 00a2 1360     		str	r3, [r2]
 297:Generated_Source\PSoC5/ADC.c ****     #endif   /* End ADC_IRQ_REMOVE */
 688              		.loc 1 297 0
 689 00a4 A2F5C072 		sub	r2, r2, #384
 690 00a8 1360     		str	r3, [r2]
 300:Generated_Source\PSoC5/ADC.c **** 
 691              		.loc 1 300 0
 692 00aa 3046     		mov	r0, r6
 693 00ac FFF7FEFF 		bl	CyExitCriticalSection
 694              	.LVL58:
 695 00b0 70BD     		pop	{r4, r5, r6, pc}
 696              	.LVL59:
 697              	.L37:
 698 00b2 00BF     		.align	2
 699              	.L36:
 700 00b4 00000000 		.word	.LANCHOR1
 701 00b8 AA430040 		.word	1073759146
 702 00bc F8460040 		.word	1073759992
 703 00c0 F9460040 		.word	1073759993
 704 00c4 91580040 		.word	1073764497
 705 00c8 77580040 		.word	1073764471
 706 00cc 82580040 		.word	1073764482
 707 00d0 A1430040 		.word	1073759137
 708 00d4 80E200E0 		.word	-536812928
 709              		.cfi_endproc
 710              	.LFE1:
 711              		.size	ADC_Enable, .-ADC_Enable
 712              		.section	.text.ADC_Start,"ax",%progbits
 713              		.align	2
 714              		.global	ADC_Start
 715              		.thumb
 716              		.thumb_func
 717              		.type	ADC_Start, %function
 718              	ADC_Start:
 719              	.LFB2:
 330:Generated_Source\PSoC5/ADC.c ****     if(ADC_initVar == 0u)
 720              		.loc 1 330 0
 721              		.cfi_startproc
 722              		@ args = 0, pretend = 0, frame = 0
 723              		@ frame_needed = 0, uses_anonymous_args = 0
 724 0000 08B5     		push	{r3, lr}
 725              		.cfi_def_cfa_offset 8
 726              		.cfi_offset 3, -8
 727              		.cfi_offset 14, -4
 331:Generated_Source\PSoC5/ADC.c ****     {
 728              		.loc 1 331 0
 729 0002 084B     		ldr	r3, .L42
 730 0004 9B79     		ldrb	r3, [r3, #6]	@ zero_extendqisi2
 731 0006 4BB9     		cbnz	r3, .L39
 333:Generated_Source\PSoC5/ADC.c ****         {
 732              		.loc 1 333 0
 733 0008 064B     		ldr	r3, .L42
 734 000a DB79     		ldrb	r3, [r3, #7]	@ zero_extendqisi2
 735 000c 13F0FF0F 		tst	r3, #255
 736 0010 01D1     		bne	.L40
 335:Generated_Source\PSoC5/ADC.c ****         }
 737              		.loc 1 335 0
ARM GAS  C:\Users\celua\AppData\Local\Temp\cc8imhxh.s 			page 46


 738 0012 FFF7FEFF 		bl	ADC_Init
 739              	.LVL60:
 740              	.L40:
 337:Generated_Source\PSoC5/ADC.c ****     }
 741              		.loc 1 337 0
 742 0016 0122     		movs	r2, #1
 743 0018 024B     		ldr	r3, .L42
 744 001a 9A71     		strb	r2, [r3, #6]
 745              	.L39:
 341:Generated_Source\PSoC5/ADC.c **** }
 746              		.loc 1 341 0
 747 001c FFF7FEFF 		bl	ADC_Enable
 748              	.LVL61:
 749 0020 08BD     		pop	{r3, pc}
 750              	.L43:
 751 0022 00BF     		.align	2
 752              	.L42:
 753 0024 00000000 		.word	.LANCHOR0
 754              		.cfi_endproc
 755              	.LFE2:
 756              		.size	ADC_Start, .-ADC_Start
 757              		.section	.text.ADC_Stop,"ax",%progbits
 758              		.align	2
 759              		.global	ADC_Stop
 760              		.thumb
 761              		.thumb_func
 762              		.type	ADC_Stop, %function
 763              	ADC_Stop:
 764              	.LFB3:
 363:Generated_Source\PSoC5/ADC.c ****     uint8 enableInterrupts;
 765              		.loc 1 363 0
 766              		.cfi_startproc
 767              		@ args = 0, pretend = 0, frame = 0
 768              		@ frame_needed = 0, uses_anonymous_args = 0
 769 0000 70B5     		push	{r4, r5, r6, lr}
 770              		.cfi_def_cfa_offset 16
 771              		.cfi_offset 4, -16
 772              		.cfi_offset 5, -12
 773              		.cfi_offset 6, -8
 774              		.cfi_offset 14, -4
 365:Generated_Source\PSoC5/ADC.c **** 
 775              		.loc 1 365 0
 776 0002 FFF7FEFF 		bl	CyEnterCriticalSection
 777              	.LVL62:
 778 0006 0646     		mov	r6, r0
 779              	.LVL63:
 368:Generated_Source\PSoC5/ADC.c ****     ADC_DEC_SR_REG |=  ADC_DEC_INTR_CLEAR;
 780              		.loc 1 368 0
 781 0008 314A     		ldr	r2, .L46
 782 000a 1378     		ldrb	r3, [r2]	@ zero_extendqisi2
 783 000c 03F0FE03 		and	r3, r3, #254
 784 0010 1370     		strb	r3, [r2]
 369:Generated_Source\PSoC5/ADC.c **** 
 785              		.loc 1 369 0
 786 0012 0132     		adds	r2, r2, #1
 787 0014 1378     		ldrb	r3, [r2]	@ zero_extendqisi2
 788 0016 43F00403 		orr	r3, r3, #4
ARM GAS  C:\Users\celua\AppData\Local\Temp\cc8imhxh.s 			page 47


 789 001a 1370     		strb	r3, [r2]
 373:Generated_Source\PSoC5/ADC.c ****     ADC_RESET_CR5_REG |= ADC_IGNORE_PRESA2;
 790              		.loc 1 373 0
 791 001c 2D4D     		ldr	r5, .L46+4
 792 001e 2B78     		ldrb	r3, [r5]	@ zero_extendqisi2
 793 0020 43F00203 		orr	r3, r3, #2
 794 0024 2B70     		strb	r3, [r5]
 374:Generated_Source\PSoC5/ADC.c **** 
 795              		.loc 1 374 0
 796 0026 2C4C     		ldr	r4, .L46+8
 797 0028 2378     		ldrb	r3, [r4]	@ zero_extendqisi2
 798 002a 43F00203 		orr	r3, r3, #2
 799 002e 2370     		strb	r3, [r4]
 376:Generated_Source\PSoC5/ADC.c ****     ADC_DSM_REF0_REG &= (uint8)~ADC_DSM_EN_BUF_VREF_INN;
 800              		.loc 1 376 0
 801 0030 02F52962 		add	r2, r2, #2704
 802 0034 1378     		ldrb	r3, [r2]	@ zero_extendqisi2
 803 0036 03F0FC03 		and	r3, r3, #252
 804 003a 1370     		strb	r3, [r2]
 377:Generated_Source\PSoC5/ADC.c **** 
 805              		.loc 1 377 0
 806 003c 0132     		adds	r2, r2, #1
 807 003e 1378     		ldrb	r3, [r2]	@ zero_extendqisi2
 808 0040 03F0F703 		and	r3, r3, #247
 809 0044 1370     		strb	r3, [r2]
 380:Generated_Source\PSoC5/ADC.c **** 
 810              		.loc 1 380 0
 811 0046 0320     		movs	r0, #3
 812 0048 FFF7FEFF 		bl	CyDelayUs
 813              	.LVL64:
 383:Generated_Source\PSoC5/ADC.c ****     ADC_RESET_CR5_REG &= (uint8)~ADC_IGNORE_PRESA2;
 814              		.loc 1 383 0
 815 004c 2B78     		ldrb	r3, [r5]	@ zero_extendqisi2
 816 004e 03F0FD03 		and	r3, r3, #253
 817 0052 2B70     		strb	r3, [r5]
 384:Generated_Source\PSoC5/ADC.c **** 
 818              		.loc 1 384 0
 819 0054 2378     		ldrb	r3, [r4]	@ zero_extendqisi2
 820 0056 03F0FD03 		and	r3, r3, #253
 821 005a 2370     		strb	r3, [r4]
 387:Generated_Source\PSoC5/ADC.c **** 
 822              		.loc 1 387 0
 823 005c 1F4B     		ldr	r3, .L46+12
 824 005e 1A78     		ldrb	r2, [r3]	@ zero_extendqisi2
 825 0060 02F0EF02 		and	r2, r2, #239
 826 0064 1A70     		strb	r2, [r3]
 390:Generated_Source\PSoC5/ADC.c **** 
 827              		.loc 1 390 0
 828 0066 1A78     		ldrb	r2, [r3]	@ zero_extendqisi2
 829 0068 02F0FE02 		and	r2, r2, #254
 830 006c 1A70     		strb	r2, [r3]
 393:Generated_Source\PSoC5/ADC.c ****     ADC_STBY_PWRMGR_DSM_REG &= (uint8)~ADC_STBY_PWR_DSM_EN;
 831              		.loc 1 393 0
 832 006e 1033     		adds	r3, r3, #16
 833 0070 1A78     		ldrb	r2, [r3]	@ zero_extendqisi2
 834 0072 02F0FE02 		and	r2, r2, #254
 835 0076 1A70     		strb	r2, [r3]
ARM GAS  C:\Users\celua\AppData\Local\Temp\cc8imhxh.s 			page 48


 394:Generated_Source\PSoC5/ADC.c **** 
 836              		.loc 1 394 0
 837 0078 1A78     		ldrb	r2, [r3]	@ zero_extendqisi2
 838 007a 02F0EF02 		and	r2, r2, #239
 839 007e 1A70     		strb	r2, [r3]
 397:Generated_Source\PSoC5/ADC.c **** 
 840              		.loc 1 397 0
 841 0080 174A     		ldr	r2, .L46+16
 842 0082 1378     		ldrb	r3, [r2]	@ zero_extendqisi2
 843 0084 03F0F903 		and	r3, r3, #249
 844 0088 1370     		strb	r3, [r2]
 401:Generated_Source\PSoC5/ADC.c ****         ADC_STBY_PWRMGR_CLK_REG &= (uint8)~ADC_STBY_PWR_CLK_EN;
 845              		.loc 1 401 0
 846 008a A2F5A652 		sub	r2, r2, #5312
 847 008e 163A     		subs	r2, r2, #22
 848 0090 1378     		ldrb	r3, [r2]	@ zero_extendqisi2
 849 0092 03F0FE03 		and	r3, r3, #254
 850 0096 1370     		strb	r3, [r2]
 402:Generated_Source\PSoC5/ADC.c ****     #endif /* ADC_DEFAULT_INTERNAL_CLK */
 851              		.loc 1 402 0
 852 0098 1032     		adds	r2, r2, #16
 853 009a 1378     		ldrb	r3, [r2]	@ zero_extendqisi2
 854 009c 03F0FE03 		and	r3, r3, #254
 855 00a0 1370     		strb	r3, [r2]
 406:Generated_Source\PSoC5/ADC.c ****     /* Disable power to charge pump clock */
 856              		.loc 1 406 0
 857 00a2 02F5A652 		add	r2, r2, #5312
 858 00a6 1132     		adds	r2, r2, #17
 859 00a8 1378     		ldrb	r3, [r2]	@ zero_extendqisi2
 860 00aa 03F0F703 		and	r3, r3, #247
 861 00ae 1370     		strb	r3, [r2]
 408:Generated_Source\PSoC5/ADC.c ****     ADC_STBY_PWRMGR_CHARGE_PUMP_CLK_REG &= (uint8)~ADC_STBY_PWR_CHARGE_PUMP_CLK_EN;
 862              		.loc 1 408 0
 863 00b0 A2F5A752 		sub	r2, r2, #5344
 864 00b4 1378     		ldrb	r3, [r2]	@ zero_extendqisi2
 865 00b6 03F0FE03 		and	r3, r3, #254
 866 00ba 1370     		strb	r3, [r2]
 409:Generated_Source\PSoC5/ADC.c ****     
 867              		.loc 1 409 0
 868 00bc 1032     		adds	r2, r2, #16
 869 00be 1378     		ldrb	r3, [r2]	@ zero_extendqisi2
 870 00c0 03F0FE03 		and	r3, r3, #254
 871 00c4 1370     		strb	r3, [r2]
 411:Generated_Source\PSoC5/ADC.c **** }
 872              		.loc 1 411 0
 873 00c6 3046     		mov	r0, r6
 874 00c8 FFF7FEFF 		bl	CyExitCriticalSection
 875              	.LVL65:
 876 00cc 70BD     		pop	{r4, r5, r6, pc}
 877              	.LVL66:
 878              	.L47:
 879 00ce 00BF     		.align	2
 880              	.L46:
 881 00d0 004E0040 		.word	1073761792
 882 00d4 F8460040 		.word	1073759992
 883 00d8 F9460040 		.word	1073759993
 884 00dc AA430040 		.word	1073759146
ARM GAS  C:\Users\celua\AppData\Local\Temp\cc8imhxh.s 			page 49


 885 00e0 77580040 		.word	1073764471
 886              		.cfi_endproc
 887              	.LFE3:
 888              		.size	ADC_Stop, .-ADC_Stop
 889              		.section	.text.ADC_SetBufferGain,"ax",%progbits
 890              		.align	2
 891              		.global	ADC_SetBufferGain
 892              		.thumb
 893              		.thumb_func
 894              		.type	ADC_SetBufferGain, %function
 895              	ADC_SetBufferGain:
 896              	.LFB4:
 430:Generated_Source\PSoC5/ADC.c ****     uint8 tmpReg;
 897              		.loc 1 430 0
 898              		.cfi_startproc
 899              		@ args = 0, pretend = 0, frame = 0
 900              		@ frame_needed = 0, uses_anonymous_args = 0
 901              		@ link register save eliminated.
 902              	.LVL67:
 432:Generated_Source\PSoC5/ADC.c ****     tmpReg |= (uint8)(gain << ADC_DSM_GAIN_SHIFT) & ADC_DSM_GAIN_MASK;
 903              		.loc 1 432 0
 904 0000 044A     		ldr	r2, .L49
 905 0002 1378     		ldrb	r3, [r2]	@ zero_extendqisi2
 906 0004 03F0F303 		and	r3, r3, #243
 907              	.LVL68:
 433:Generated_Source\PSoC5/ADC.c ****     ADC_DSM_BUF1_REG = tmpReg;
 908              		.loc 1 433 0
 909 0008 8000     		lsls	r0, r0, #2
 910              	.LVL69:
 911 000a 00F00C00 		and	r0, r0, #12
 912 000e 1843     		orrs	r0, r0, r3
 913              	.LVL70:
 434:Generated_Source\PSoC5/ADC.c **** }
 914              		.loc 1 434 0
 915 0010 1070     		strb	r0, [r2]
 916 0012 7047     		bx	lr
 917              	.L50:
 918              		.align	2
 919              	.L49:
 920 0014 9B580040 		.word	1073764507
 921              		.cfi_endproc
 922              	.LFE4:
 923              		.size	ADC_SetBufferGain, .-ADC_SetBufferGain
 924              		.section	.text.ADC_SetCoherency,"ax",%progbits
 925              		.align	2
 926              		.global	ADC_SetCoherency
 927              		.thumb
 928              		.thumb_func
 929              		.type	ADC_SetCoherency, %function
 930              	ADC_SetCoherency:
 931              	.LFB5:
 466:Generated_Source\PSoC5/ADC.c ****     uint8 tmpReg;
 932              		.loc 1 466 0
 933              		.cfi_startproc
 934              		@ args = 0, pretend = 0, frame = 0
 935              		@ frame_needed = 0, uses_anonymous_args = 0
 936              		@ link register save eliminated.
ARM GAS  C:\Users\celua\AppData\Local\Temp\cc8imhxh.s 			page 50


 937              	.LVL71:
 469:Generated_Source\PSoC5/ADC.c ****     tmpReg |= coherency & ADC_DEC_SAMP_KEY_MASK;
 938              		.loc 1 469 0
 939 0000 044A     		ldr	r2, .L52
 940 0002 1378     		ldrb	r3, [r2]	@ zero_extendqisi2
 941 0004 03F0FC03 		and	r3, r3, #252
 942              	.LVL72:
 470:Generated_Source\PSoC5/ADC.c ****     ADC_DEC_COHER_REG = tmpReg;
 943              		.loc 1 470 0
 944 0008 00F00300 		and	r0, r0, #3
 945              	.LVL73:
 946 000c 1843     		orrs	r0, r0, r3
 947              	.LVL74:
 471:Generated_Source\PSoC5/ADC.c **** }
 948              		.loc 1 471 0
 949 000e 1070     		strb	r0, [r2]
 950 0010 7047     		bx	lr
 951              	.L53:
 952 0012 00BF     		.align	2
 953              	.L52:
 954 0014 144E0040 		.word	1073761812
 955              		.cfi_endproc
 956              	.LFE5:
 957              		.size	ADC_SetCoherency, .-ADC_SetCoherency
 958              		.global	__aeabi_ui2f
 959              		.global	__aeabi_fmul
 960              		.global	__aeabi_f2d
 961              		.global	__aeabi_dcmpgt
 962              		.global	__aeabi_f2uiz
 963              		.section	.text.ADC_SetGCOR,"ax",%progbits
 964              		.align	2
 965              		.global	ADC_SetGCOR
 966              		.thumb
 967              		.thumb_func
 968              		.type	ADC_SetGCOR, %function
 969              	ADC_SetGCOR:
 970              	.LFB6:
 506:Generated_Source\PSoC5/ADC.c ****     uint16 tmpReg;
 971              		.loc 1 506 0
 972              		.cfi_startproc
 973              		@ args = 0, pretend = 0, frame = 0
 974              		@ frame_needed = 0, uses_anonymous_args = 0
 975              	.LVL75:
 976 0000 10B5     		push	{r4, lr}
 977              		.cfi_def_cfa_offset 8
 978              		.cfi_offset 4, -8
 979              		.cfi_offset 14, -4
 980 0002 0446     		mov	r4, r0
 511:Generated_Source\PSoC5/ADC.c ****     tmpValue = ((float32)tmpReg / (float32)ADC_IDEAL_GAIN_CONST);
 981              		.loc 1 511 0
 982 0004 184B     		ldr	r3, .L58+8
 983 0006 1B78     		ldrb	r3, [r3]	@ zero_extendqisi2
 984 0008 013B     		subs	r3, r3, #1
 985              	.LVL76:
 512:Generated_Source\PSoC5/ADC.c ****     tmpValue = tmpValue * gainAdjust;
 986              		.loc 1 512 0
 987 000a 184A     		ldr	r2, .L58+12
ARM GAS  C:\Users\celua\AppData\Local\Temp\cc8imhxh.s 			page 51


 988 000c 32F82300 		ldrh	r0, [r2, r3, lsl #2]
 989              	.LVL77:
 990 0010 FFF7FEFF 		bl	__aeabi_ui2f
 991              	.LVL78:
 992 0014 4FF06051 		mov	r1, #939524096
 993 0018 FFF7FEFF 		bl	__aeabi_fmul
 994              	.LVL79:
 513:Generated_Source\PSoC5/ADC.c **** 
 995              		.loc 1 513 0
 996 001c 2146     		mov	r1, r4
 997 001e FFF7FEFF 		bl	__aeabi_fmul
 998              	.LVL80:
 999 0022 0446     		mov	r4, r0
 1000              	.LVL81:
 515:Generated_Source\PSoC5/ADC.c ****     {
 1001              		.loc 1 515 0
 1002 0024 FFF7FEFF 		bl	__aeabi_f2d
 1003              	.LVL82:
 1004 0028 0DA3     		adr	r3, .L58
 1005 002a D3E90023 		ldrd	r2, [r3]
 1006 002e FFF7FEFF 		bl	__aeabi_dcmpgt
 1007              	.LVL83:
 1008 0032 88B9     		cbnz	r0, .L56
 521:Generated_Source\PSoC5/ADC.c **** 		tmpReg = (uint16)tmpValue;
 1009              		.loc 1 521 0
 1010 0034 4FF08E41 		mov	r1, #1191182336
 1011 0038 2046     		mov	r0, r4
 1012 003a FFF7FEFF 		bl	__aeabi_fmul
 1013              	.LVL84:
 522:Generated_Source\PSoC5/ADC.c ****         CY_SET_REG16(ADC_DEC_GCOR_16B_PTR, tmpReg);
 1014              		.loc 1 522 0
 1015 003e FFF7FEFF 		bl	__aeabi_f2uiz
 1016              	.LVL85:
 1017 0042 80B2     		uxth	r0, r0
 1018              	.LVL86:
 523:Generated_Source\PSoC5/ADC.c ****         /* Update gain array to be used by SelectConfiguration() API */
 1019              		.loc 1 523 0
 1020 0044 0A4B     		ldr	r3, .L58+16
 1021 0046 1880     		strh	r0, [r3]	@ movhi
 525:Generated_Source\PSoC5/ADC.c **** 
 1022              		.loc 1 525 0
 1023 0048 074B     		ldr	r3, .L58+8
 1024 004a 1B78     		ldrb	r3, [r3]	@ zero_extendqisi2
 1025 004c 013B     		subs	r3, r3, #1
 1026 004e 074A     		ldr	r2, .L58+12
 1027 0050 22F82300 		strh	r0, [r2, r3, lsl #2]	@ movhi
 1028              	.LVL87:
 527:Generated_Source\PSoC5/ADC.c **** 
 1029              		.loc 1 527 0
 1030 0054 0020     		movs	r0, #0
 1031              	.LVL88:
 1032 0056 10BD     		pop	{r4, pc}
 1033              	.LVL89:
 1034              	.L56:
 517:Generated_Source\PSoC5/ADC.c ****     }
 1035              		.loc 1 517 0
 1036 0058 0120     		movs	r0, #1
ARM GAS  C:\Users\celua\AppData\Local\Temp\cc8imhxh.s 			page 52


 1037              	.LVL90:
 531:Generated_Source\PSoC5/ADC.c **** 
 1038              		.loc 1 531 0
 1039 005a 10BD     		pop	{r4, pc}
 1040              	.LVL91:
 1041              	.L59:
 1042 005c AFF30080 		.align	3
 1043              	.L58:
 1044 0060 8F537424 		.word	611603343
 1045 0064 97FFFF3F 		.word	1073741719
 1046 0068 00000000 		.word	.LANCHOR1
 1047 006c 00000000 		.word	.LANCHOR0
 1048 0070 0C4E0040 		.word	1073761804
 1049              		.cfi_endproc
 1050              	.LFE6:
 1051              		.size	ADC_SetGCOR, .-ADC_SetGCOR
 1052              		.section	.text.ADC_ReadGCOR,"ax",%progbits
 1053              		.align	2
 1054              		.global	ADC_ReadGCOR
 1055              		.thumb
 1056              		.thumb_func
 1057              		.type	ADC_ReadGCOR, %function
 1058              	ADC_ReadGCOR:
 1059              	.LFB7:
 553:Generated_Source\PSoC5/ADC.c ****     uint8 gValue;
 1060              		.loc 1 553 0
 1061              		.cfi_startproc
 1062              		@ args = 0, pretend = 0, frame = 0
 1063              		@ frame_needed = 0, uses_anonymous_args = 0
 1064              		@ link register save eliminated.
 557:Generated_Source\PSoC5/ADC.c ****     gcorValue = CY_GET_REG16(ADC_DEC_GCOR_16B_PTR);
 1065              		.loc 1 557 0
 1066 0000 064B     		ldr	r3, .L62
 1067 0002 1B78     		ldrb	r3, [r3]	@ zero_extendqisi2
 1068 0004 DBB2     		uxtb	r3, r3
 1069              	.LVL92:
 558:Generated_Source\PSoC5/ADC.c **** 
 1070              		.loc 1 558 0
 1071 0006 064A     		ldr	r2, .L62+4
 1072 0008 1088     		ldrh	r0, [r2]
 1073 000a 80B2     		uxth	r0, r0
 1074              	.LVL93:
 560:Generated_Source\PSoC5/ADC.c ****     {
 1075              		.loc 1 560 0
 1076 000c 0E2B     		cmp	r3, #14
 1077 000e 03D8     		bhi	.L61
 562:Generated_Source\PSoC5/ADC.c ****     }
 1078              		.loc 1 562 0
 1079 0010 C3F10F03 		rsb	r3, r3, #15
 1080              	.LVL94:
 1081 0014 9840     		lsls	r0, r0, r3
 1082              	.LVL95:
 1083 0016 80B2     		uxth	r0, r0
 1084              	.LVL96:
 1085              	.L61:
 566:Generated_Source\PSoC5/ADC.c **** 
 1086              		.loc 1 566 0
ARM GAS  C:\Users\celua\AppData\Local\Temp\cc8imhxh.s 			page 53


 1087 0018 7047     		bx	lr
 1088              	.L63:
 1089 001a 00BF     		.align	2
 1090              	.L62:
 1091 001c 0E4E0040 		.word	1073761806
 1092 0020 0C4E0040 		.word	1073761804
 1093              		.cfi_endproc
 1094              	.LFE7:
 1095              		.size	ADC_ReadGCOR, .-ADC_ReadGCOR
 1096              		.section	.text.ADC_StartConvert,"ax",%progbits
 1097              		.align	2
 1098              		.global	ADC_StartConvert
 1099              		.thumb
 1100              		.thumb_func
 1101              		.type	ADC_StartConvert, %function
 1102              	ADC_StartConvert:
 1103              	.LFB8:
 587:Generated_Source\PSoC5/ADC.c ****     /* Start the conversion */
 1104              		.loc 1 587 0
 1105              		.cfi_startproc
 1106              		@ args = 0, pretend = 0, frame = 0
 1107              		@ frame_needed = 0, uses_anonymous_args = 0
 1108              		@ link register save eliminated.
 589:Generated_Source\PSoC5/ADC.c **** }
 1109              		.loc 1 589 0
 1110 0000 024A     		ldr	r2, .L65
 1111 0002 1378     		ldrb	r3, [r2]	@ zero_extendqisi2
 1112 0004 43F00103 		orr	r3, r3, #1
 1113 0008 1370     		strb	r3, [r2]
 1114 000a 7047     		bx	lr
 1115              	.L66:
 1116              		.align	2
 1117              	.L65:
 1118 000c 004E0040 		.word	1073761792
 1119              		.cfi_endproc
 1120              	.LFE8:
 1121              		.size	ADC_StartConvert, .-ADC_StartConvert
 1122              		.section	.text.ADC_StopConvert,"ax",%progbits
 1123              		.align	2
 1124              		.global	ADC_StopConvert
 1125              		.thumb
 1126              		.thumb_func
 1127              		.type	ADC_StopConvert, %function
 1128              	ADC_StopConvert:
 1129              	.LFB9:
 610:Generated_Source\PSoC5/ADC.c ****     /* Stop all conversions */
 1130              		.loc 1 610 0
 1131              		.cfi_startproc
 1132              		@ args = 0, pretend = 0, frame = 0
 1133              		@ frame_needed = 0, uses_anonymous_args = 0
 1134              		@ link register save eliminated.
 612:Generated_Source\PSoC5/ADC.c **** }
 1135              		.loc 1 612 0
 1136 0000 024A     		ldr	r2, .L68
 1137 0002 1378     		ldrb	r3, [r2]	@ zero_extendqisi2
 1138 0004 03F0FE03 		and	r3, r3, #254
 1139 0008 1370     		strb	r3, [r2]
ARM GAS  C:\Users\celua\AppData\Local\Temp\cc8imhxh.s 			page 54


 1140 000a 7047     		bx	lr
 1141              	.L69:
 1142              		.align	2
 1143              	.L68:
 1144 000c 004E0040 		.word	1073761792
 1145              		.cfi_endproc
 1146              	.LFE9:
 1147              		.size	ADC_StopConvert, .-ADC_StopConvert
 1148              		.section	.text.ADC_IsEndConversion,"ax",%progbits
 1149              		.align	2
 1150              		.global	ADC_IsEndConversion
 1151              		.thumb
 1152              		.thumb_func
 1153              		.type	ADC_IsEndConversion, %function
 1154              	ADC_IsEndConversion:
 1155              	.LFB10:
 645:Generated_Source\PSoC5/ADC.c ****     uint8 status;
 1156              		.loc 1 645 0
 1157              		.cfi_startproc
 1158              		@ args = 0, pretend = 0, frame = 0
 1159              		@ frame_needed = 0, uses_anonymous_args = 0
 1160              		@ link register save eliminated.
 1161              	.LVL97:
 1162              	.L74:
 653:Generated_Source\PSoC5/ADC.c ****         {
 1163              		.loc 1 653 0
 1164 0000 094B     		ldr	r3, .L75
 1165 0002 1B79     		ldrb	r3, [r3, #4]	@ zero_extendqisi2
 1166 0004 13F0FF0F 		tst	r3, #255
 1167 0008 03D0     		beq	.L71
 655:Generated_Source\PSoC5/ADC.c ****         }
 1168              		.loc 1 655 0
 1169 000a 074B     		ldr	r3, .L75
 1170 000c 5B79     		ldrb	r3, [r3, #5]	@ zero_extendqisi2
 1171 000e DBB2     		uxtb	r3, r3
 1172              	.LVL98:
 1173 0010 03E0     		b	.L72
 1174              	.LVL99:
 1175              	.L71:
 659:Generated_Source\PSoC5/ADC.c ****         }
 1176              		.loc 1 659 0
 1177 0012 064B     		ldr	r3, .L75+4
 1178 0014 1B78     		ldrb	r3, [r3]	@ zero_extendqisi2
 1179 0016 03F00103 		and	r3, r3, #1
 1180              	.LVL100:
 1181              	.L72:
 661:Generated_Source\PSoC5/ADC.c **** 
 1182              		.loc 1 661 0
 1183 001a 012B     		cmp	r3, #1
 1184 001c 01D0     		beq	.L73
 661:Generated_Source\PSoC5/ADC.c **** 
 1185              		.loc 1 661 0 is_stmt 0 discriminator 1
 1186 001e 0028     		cmp	r0, #0
 1187 0020 EED0     		beq	.L74
 1188              	.L73:
 664:Generated_Source\PSoC5/ADC.c **** 
 1189              		.loc 1 664 0 is_stmt 1
ARM GAS  C:\Users\celua\AppData\Local\Temp\cc8imhxh.s 			page 55


 1190 0022 1846     		mov	r0, r3
 1191              	.LVL101:
 1192 0024 7047     		bx	lr
 1193              	.L76:
 1194 0026 00BF     		.align	2
 1195              	.L75:
 1196 0028 00000000 		.word	.LANCHOR0
 1197 002c 014E0040 		.word	1073761793
 1198              		.cfi_endproc
 1199              	.LFE10:
 1200              		.size	ADC_IsEndConversion, .-ADC_IsEndConversion
 1201              		.section	.text.ADC_GetResult8,"ax",%progbits
 1202              		.align	2
 1203              		.global	ADC_GetResult8
 1204              		.thumb
 1205              		.thumb_func
 1206              		.type	ADC_GetResult8, %function
 1207              	ADC_GetResult8:
 1208              	.LFB11:
 692:Generated_Source\PSoC5/ADC.c ****     int8 result;
 1209              		.loc 1 692 0
 1210              		.cfi_startproc
 1211              		@ args = 0, pretend = 0, frame = 0
 1212              		@ frame_needed = 0, uses_anonymous_args = 0
 1213              		@ link register save eliminated.
 697:Generated_Source\PSoC5/ADC.c **** 
 1214              		.loc 1 697 0
 1215 0000 0C4B     		ldr	r3, .L81
 1216 0002 1B78     		ldrb	r3, [r3]	@ zero_extendqisi2
 1217 0004 03F00303 		and	r3, r3, #3
 1218              	.LVL102:
 699:Generated_Source\PSoC5/ADC.c **** 
 1219              		.loc 1 699 0
 1220 0008 0B4A     		ldr	r2, .L81+4
 1221 000a 1078     		ldrb	r0, [r2]	@ zero_extendqisi2
 1222 000c 40B2     		sxtb	r0, r0
 1223              	.LVL103:
 701:Generated_Source\PSoC5/ADC.c ****     {   /* Dummy read of the middle byte to unlock the coherency */
 1224              		.loc 1 701 0
 1225 000e 022B     		cmp	r3, #2
 1226 0010 02D1     		bne	.L78
 703:Generated_Source\PSoC5/ADC.c ****     }
 1227              		.loc 1 703 0
 1228 0012 0A4B     		ldr	r3, .L81+8
 1229              	.LVL104:
 1230 0014 1B78     		ldrb	r3, [r3]	@ zero_extendqisi2
 1231 0016 03E0     		b	.L79
 1232              	.LVL105:
 1233              	.L78:
 705:Generated_Source\PSoC5/ADC.c ****     {   /* Dummy read of the MSB byte to unlock the coherency */
 1234              		.loc 1 705 0
 1235 0018 032B     		cmp	r3, #3
 1236 001a 01D1     		bne	.L79
 707:Generated_Source\PSoC5/ADC.c ****     }
 1237              		.loc 1 707 0
 1238 001c 084B     		ldr	r3, .L81+12
 1239              	.LVL106:
ARM GAS  C:\Users\celua\AppData\Local\Temp\cc8imhxh.s 			page 56


 1240 001e 1B78     		ldrb	r3, [r3]	@ zero_extendqisi2
 1241              	.L79:
 713:Generated_Source\PSoC5/ADC.c ****     {
 1242              		.loc 1 713 0
 1243 0020 084B     		ldr	r3, .L81+16
 1244 0022 1B79     		ldrb	r3, [r3, #4]	@ zero_extendqisi2
 1245 0024 13F0FF0F 		tst	r3, #255
 1246 0028 02D0     		beq	.L80
 715:Generated_Source\PSoC5/ADC.c ****     }
 1247              		.loc 1 715 0
 1248 002a 0022     		movs	r2, #0
 1249 002c 054B     		ldr	r3, .L81+16
 1250 002e 5A71     		strb	r2, [r3, #5]
 1251              	.L80:
 718:Generated_Source\PSoC5/ADC.c **** 
 1252              		.loc 1 718 0
 1253 0030 7047     		bx	lr
 1254              	.L82:
 1255 0032 00BF     		.align	2
 1256              	.L81:
 1257 0034 144E0040 		.word	1073761812
 1258 0038 104E0040 		.word	1073761808
 1259 003c 114E0040 		.word	1073761809
 1260 0040 124E0040 		.word	1073761810
 1261 0044 00000000 		.word	.LANCHOR0
 1262              		.cfi_endproc
 1263              	.LFE11:
 1264              		.size	ADC_GetResult8, .-ADC_GetResult8
 1265              		.section	.text.ADC_GetResult16,"ax",%progbits
 1266              		.align	2
 1267              		.global	ADC_GetResult16
 1268              		.thumb
 1269              		.thumb_func
 1270              		.type	ADC_GetResult16, %function
 1271              	ADC_GetResult16:
 1272              	.LFB12:
 746:Generated_Source\PSoC5/ADC.c ****     uint16 result;
 1273              		.loc 1 746 0
 1274              		.cfi_startproc
 1275              		@ args = 0, pretend = 0, frame = 0
 1276              		@ frame_needed = 0, uses_anonymous_args = 0
 1277              		@ link register save eliminated.
 751:Generated_Source\PSoC5/ADC.c **** 
 1278              		.loc 1 751 0
 1279 0000 0E4B     		ldr	r3, .L87
 1280 0002 1B78     		ldrb	r3, [r3]	@ zero_extendqisi2
 1281 0004 03F00303 		and	r3, r3, #3
 1282              	.LVL107:
 753:Generated_Source\PSoC5/ADC.c ****     {   /*  Use default method to read result registers i.e. LSB byte read at the end*/
 1283              		.loc 1 753 0
 1284 0008 012B     		cmp	r3, #1
 1285 000a 03D8     		bhi	.L84
 759:Generated_Source\PSoC5/ADC.c ****         #endif /* CY_PSOC3 */
 1286              		.loc 1 759 0
 1287 000c 0C4B     		ldr	r3, .L87+4
 1288              	.LVL108:
 1289 000e 1888     		ldrh	r0, [r3]
ARM GAS  C:\Users\celua\AppData\Local\Temp\cc8imhxh.s 			page 57


 1290 0010 80B2     		uxth	r0, r0
 1291              	.LVL109:
 1292 0012 09E0     		b	.L85
 1293              	.LVL110:
 1294              	.L84:
 767:Generated_Source\PSoC5/ADC.c ****             result |=  (uint16)((uint16)ADC_DEC_SAMPM_REG << 8u);
 1295              		.loc 1 767 0
 1296 0014 0A4A     		ldr	r2, .L87+4
 1297 0016 1278     		ldrb	r2, [r2]	@ zero_extendqisi2
 1298              	.LVL111:
 768:Generated_Source\PSoC5/ADC.c ****         #endif /* CY_PSOC3 */
 1299              		.loc 1 768 0
 1300 0018 0A49     		ldr	r1, .L87+8
 1301 001a 0878     		ldrb	r0, [r1]	@ zero_extendqisi2
 1302 001c 42EA0020 		orr	r0, r2, r0, lsl #8
 1303              	.LVL112:
 770:Generated_Source\PSoC5/ADC.c ****         {   /* Dummy read of the MSB byte to unlock the coherency */
 1304              		.loc 1 770 0
 1305 0020 032B     		cmp	r3, #3
 1306 0022 01D1     		bne	.L85
 772:Generated_Source\PSoC5/ADC.c ****         }
 1307              		.loc 1 772 0
 1308 0024 084B     		ldr	r3, .L87+12
 1309              	.LVL113:
 1310 0026 1B78     		ldrb	r3, [r3]	@ zero_extendqisi2
 1311              	.L85:
 776:Generated_Source\PSoC5/ADC.c ****     {
 1312              		.loc 1 776 0
 1313 0028 084B     		ldr	r3, .L87+16
 1314 002a 1B79     		ldrb	r3, [r3, #4]	@ zero_extendqisi2
 1315 002c 13F0FF0F 		tst	r3, #255
 1316 0030 02D0     		beq	.L86
 778:Generated_Source\PSoC5/ADC.c ****     }
 1317              		.loc 1 778 0
 1318 0032 0022     		movs	r2, #0
 1319 0034 054B     		ldr	r3, .L87+16
 1320 0036 5A71     		strb	r2, [r3, #5]
 1321              	.L86:
 782:Generated_Source\PSoC5/ADC.c **** 
 1322              		.loc 1 782 0
 1323 0038 00B2     		sxth	r0, r0
 1324 003a 7047     		bx	lr
 1325              	.L88:
 1326              		.align	2
 1327              	.L87:
 1328 003c 144E0040 		.word	1073761812
 1329 0040 104E0040 		.word	1073761808
 1330 0044 114E0040 		.word	1073761809
 1331 0048 124E0040 		.word	1073761810
 1332 004c 00000000 		.word	.LANCHOR0
 1333              		.cfi_endproc
 1334              	.LFE12:
 1335              		.size	ADC_GetResult16, .-ADC_GetResult16
 1336              		.section	.text.ADC_GetResult32,"ax",%progbits
 1337              		.align	2
 1338              		.global	ADC_GetResult32
 1339              		.thumb
ARM GAS  C:\Users\celua\AppData\Local\Temp\cc8imhxh.s 			page 58


 1340              		.thumb_func
 1341              		.type	ADC_GetResult32, %function
 1342              	ADC_GetResult32:
 1343              	.LFB13:
 806:Generated_Source\PSoC5/ADC.c ****     uint32 result;
 1344              		.loc 1 806 0
 1345              		.cfi_startproc
 1346              		@ args = 0, pretend = 0, frame = 0
 1347              		@ frame_needed = 0, uses_anonymous_args = 0
 1348              		@ link register save eliminated.
 814:Generated_Source\PSoC5/ADC.c **** 
 1349              		.loc 1 814 0
 1350 0000 154B     		ldr	r3, .L94
 1351 0002 1B78     		ldrb	r3, [r3]	@ zero_extendqisi2
 1352 0004 03F00303 		and	r3, r3, #3
 1353              	.LVL114:
 816:Generated_Source\PSoC5/ADC.c ****     {   /*  Use default method to read result registers i.e. LSB byte read at the end*/
 1354              		.loc 1 816 0
 1355 0008 012B     		cmp	r3, #1
 1356 000a 07D8     		bhi	.L90
 827:Generated_Source\PSoC5/ADC.c ****             result = (result << 16u) | (CY_GET_REG16(ADC_DEC_SAMP_16B_PTR));
 1357              		.loc 1 827 0
 1358 000c 134B     		ldr	r3, .L94+4
 1359              	.LVL115:
 1360 000e 1888     		ldrh	r0, [r3]
 1361              	.LVL116:
 828:Generated_Source\PSoC5/ADC.c ****         #endif /* CY_PSOC3 */
 1362              		.loc 1 828 0
 1363 0010 023B     		subs	r3, r3, #2
 1364 0012 1B88     		ldrh	r3, [r3]
 1365 0014 9BB2     		uxth	r3, r3
 1366 0016 43EA0040 		orr	r0, r3, r0, lsl #16
 1367              	.LVL117:
 1368 001a 13E0     		b	.L91
 1369              	.LVL118:
 1370              	.L90:
 831:Generated_Source\PSoC5/ADC.c ****     {   /* Read middle byte at the end */
 1371              		.loc 1 831 0
 1372 001c 022B     		cmp	r3, #2
 1373 001e 0AD1     		bne	.L92
 841:Generated_Source\PSoC5/ADC.c ****             result = (result << 16u) | ADC_DEC_SAMP_REG;
 1374              		.loc 1 841 0
 1375 0020 0E4B     		ldr	r3, .L94+4
 1376              	.LVL119:
 1377 0022 1888     		ldrh	r0, [r3]
 1378              	.LVL120:
 842:Generated_Source\PSoC5/ADC.c ****             result |=  (uint32)((uint32)ADC_DEC_SAMPM_REG << 8u);
 1379              		.loc 1 842 0
 1380 0024 023B     		subs	r3, r3, #2
 1381 0026 1B78     		ldrb	r3, [r3]	@ zero_extendqisi2
 1382 0028 43EA0043 		orr	r3, r3, r0, lsl #16
 1383              	.LVL121:
 843:Generated_Source\PSoC5/ADC.c ****         #endif /* CY_PSOC3 */
 1384              		.loc 1 843 0
 1385 002c 0C4A     		ldr	r2, .L94+8
 1386 002e 1078     		ldrb	r0, [r2]	@ zero_extendqisi2
 1387 0030 43EA0020 		orr	r0, r3, r0, lsl #8
ARM GAS  C:\Users\celua\AppData\Local\Temp\cc8imhxh.s 			page 59


 1388              	.LVL122:
 1389 0034 06E0     		b	.L91
 1390              	.LVL123:
 1391              	.L92:
 858:Generated_Source\PSoC5/ADC.c ****             result |= (uint32)((uint32)CY_GET_REG16(ADC_DEC_SAMPH_16B_PTR) << 16u);
 1392              		.loc 1 858 0
 1393 0036 0B4B     		ldr	r3, .L94+12
 1394              	.LVL124:
 1395 0038 1888     		ldrh	r0, [r3]
 1396 003a 83B2     		uxth	r3, r0
 1397              	.LVL125:
 859:Generated_Source\PSoC5/ADC.c ****         #endif /* CY_PSOC3 */
 1398              		.loc 1 859 0
 1399 003c 074A     		ldr	r2, .L94+4
 1400 003e 1088     		ldrh	r0, [r2]
 1401 0040 43EA0040 		orr	r0, r3, r0, lsl #16
 1402              	.LVL126:
 1403              	.L91:
 863:Generated_Source\PSoC5/ADC.c ****     {
 1404              		.loc 1 863 0
 1405 0044 084B     		ldr	r3, .L94+16
 1406 0046 1B79     		ldrb	r3, [r3, #4]	@ zero_extendqisi2
 1407 0048 13F0FF0F 		tst	r3, #255
 1408 004c 02D0     		beq	.L93
 865:Generated_Source\PSoC5/ADC.c ****     }
 1409              		.loc 1 865 0
 1410 004e 0022     		movs	r2, #0
 1411 0050 054B     		ldr	r3, .L94+16
 1412 0052 5A71     		strb	r2, [r3, #5]
 1413              	.L93:
 869:Generated_Source\PSoC5/ADC.c **** 
 1414              		.loc 1 869 0
 1415 0054 7047     		bx	lr
 1416              	.L95:
 1417 0056 00BF     		.align	2
 1418              	.L94:
 1419 0058 144E0040 		.word	1073761812
 1420 005c 124E0040 		.word	1073761810
 1421 0060 114E0040 		.word	1073761809
 1422 0064 104E0040 		.word	1073761808
 1423 0068 00000000 		.word	.LANCHOR0
 1424              		.cfi_endproc
 1425              	.LFE13:
 1426              		.size	ADC_GetResult32, .-ADC_GetResult32
 1427              		.section	.text.ADC_SetOffset,"ax",%progbits
 1428              		.align	2
 1429              		.global	ADC_SetOffset
 1430              		.thumb
 1431              		.thumb_func
 1432              		.type	ADC_SetOffset, %function
 1433              	ADC_SetOffset:
 1434              	.LFB14:
 899:Generated_Source\PSoC5/ADC.c **** 
 1435              		.loc 1 899 0
 1436              		.cfi_startproc
 1437              		@ args = 0, pretend = 0, frame = 0
 1438              		@ frame_needed = 0, uses_anonymous_args = 0
ARM GAS  C:\Users\celua\AppData\Local\Temp\cc8imhxh.s 			page 60


 1439              		@ link register save eliminated.
 1440              	.LVL127:
 901:Generated_Source\PSoC5/ADC.c **** }
 1441              		.loc 1 901 0
 1442 0000 014B     		ldr	r3, .L97
 1443 0002 1860     		str	r0, [r3]
 1444 0004 7047     		bx	lr
 1445              	.L98:
 1446 0006 00BF     		.align	2
 1447              	.L97:
 1448 0008 00000000 		.word	ADC_Offset
 1449              		.cfi_endproc
 1450              	.LFE14:
 1451              		.size	ADC_SetOffset, .-ADC_SetOffset
 1452              		.section	.text.ADC_SetGain,"ax",%progbits
 1453              		.align	2
 1454              		.global	ADC_SetGain
 1455              		.thumb
 1456              		.thumb_func
 1457              		.type	ADC_SetGain, %function
 1458              	ADC_SetGain:
 1459              	.LFB15:
 934:Generated_Source\PSoC5/ADC.c ****     ADC_CountsPerVolt = adcGain;
 1460              		.loc 1 934 0
 1461              		.cfi_startproc
 1462              		@ args = 0, pretend = 0, frame = 0
 1463              		@ frame_needed = 0, uses_anonymous_args = 0
 1464              		@ link register save eliminated.
 1465              	.LVL128:
 935:Generated_Source\PSoC5/ADC.c **** }
 1466              		.loc 1 935 0
 1467 0000 014B     		ldr	r3, .L100
 1468 0002 1860     		str	r0, [r3]
 1469 0004 7047     		bx	lr
 1470              	.L101:
 1471 0006 00BF     		.align	2
 1472              	.L100:
 1473 0008 00000000 		.word	ADC_CountsPerVolt
 1474              		.cfi_endproc
 1475              	.LFE15:
 1476              		.size	ADC_SetGain, .-ADC_SetGain
 1477              		.section	.text.ADC_CountsTo_mVolts,"ax",%progbits
 1478              		.align	2
 1479              		.global	ADC_CountsTo_mVolts
 1480              		.thumb
 1481              		.thumb_func
 1482              		.type	ADC_CountsTo_mVolts, %function
 1483              	ADC_CountsTo_mVolts:
 1484              	.LFB16:
 961:Generated_Source\PSoC5/ADC.c **** 
 1485              		.loc 1 961 0
 1486              		.cfi_startproc
 1487              		@ args = 0, pretend = 0, frame = 0
 1488              		@ frame_needed = 0, uses_anonymous_args = 0
 1489              		@ link register save eliminated.
 1490              	.LVL129:
 992:Generated_Source\PSoC5/ADC.c **** 
ARM GAS  C:\Users\celua\AppData\Local\Temp\cc8imhxh.s 			page 61


 1491              		.loc 1 992 0
 1492 0000 064B     		ldr	r3, .L103
 1493 0002 1B68     		ldr	r3, [r3]
 1494 0004 C01A     		subs	r0, r0, r3
 1495              	.LVL130:
 994:Generated_Source\PSoC5/ADC.c **** 
 1496              		.loc 1 994 0
 1497 0006 4FF47A73 		mov	r3, #1000
 1498 000a 03FB00F0 		mul	r0, r3, r0
 1499              	.LVL131:
 1500 000e 044B     		ldr	r3, .L103+4
 1501 0010 1B68     		ldr	r3, [r3]
 1502 0012 90FBF3F0 		sdiv	r0, r0, r3
 1503              	.LVL132:
 997:Generated_Source\PSoC5/ADC.c **** 
 1504              		.loc 1 997 0
 1505 0016 00B2     		sxth	r0, r0
 1506 0018 7047     		bx	lr
 1507              	.L104:
 1508 001a 00BF     		.align	2
 1509              	.L103:
 1510 001c 00000000 		.word	ADC_Offset
 1511 0020 00000000 		.word	ADC_CountsPerVolt
 1512              		.cfi_endproc
 1513              	.LFE16:
 1514              		.size	ADC_CountsTo_mVolts, .-ADC_CountsTo_mVolts
 1515              		.global	__aeabi_i2f
 1516              		.global	__aeabi_fdiv
 1517              		.section	.text.ADC_CountsTo_Volts,"ax",%progbits
 1518              		.align	2
 1519              		.global	ADC_CountsTo_Volts
 1520              		.thumb
 1521              		.thumb_func
 1522              		.type	ADC_CountsTo_Volts, %function
 1523              	ADC_CountsTo_Volts:
 1524              	.LFB17:
1022:Generated_Source\PSoC5/ADC.c **** 
 1525              		.loc 1 1022 0
 1526              		.cfi_startproc
 1527              		@ args = 0, pretend = 0, frame = 0
 1528              		@ frame_needed = 0, uses_anonymous_args = 0
 1529              	.LVL133:
 1530 0000 10B5     		push	{r4, lr}
 1531              		.cfi_def_cfa_offset 8
 1532              		.cfi_offset 4, -8
 1533              		.cfi_offset 14, -4
1053:Generated_Source\PSoC5/ADC.c **** 
 1534              		.loc 1 1053 0
 1535 0002 074B     		ldr	r3, .L107
 1536 0004 1B68     		ldr	r3, [r3]
 1537              	.LVL134:
1055:Generated_Source\PSoC5/ADC.c **** 
 1538              		.loc 1 1055 0
 1539 0006 C01A     		subs	r0, r0, r3
 1540              	.LVL135:
 1541 0008 FFF7FEFF 		bl	__aeabi_i2f
 1542              	.LVL136:
ARM GAS  C:\Users\celua\AppData\Local\Temp\cc8imhxh.s 			page 62


 1543 000c 0446     		mov	r4, r0
 1544 000e 054B     		ldr	r3, .L107+4
 1545 0010 1868     		ldr	r0, [r3]
 1546 0012 FFF7FEFF 		bl	__aeabi_i2f
 1547              	.LVL137:
 1548 0016 0146     		mov	r1, r0
 1549 0018 2046     		mov	r0, r4
 1550 001a FFF7FEFF 		bl	__aeabi_fdiv
 1551              	.LVL138:
1058:Generated_Source\PSoC5/ADC.c **** 
 1552              		.loc 1 1058 0
 1553 001e 10BD     		pop	{r4, pc}
 1554              	.L108:
 1555              		.align	2
 1556              	.L107:
 1557 0020 00000000 		.word	ADC_Offset
 1558 0024 00000000 		.word	ADC_CountsPerVolt
 1559              		.cfi_endproc
 1560              	.LFE17:
 1561              		.size	ADC_CountsTo_Volts, .-ADC_CountsTo_Volts
 1562              		.section	.text.ADC_CountsTo_uVolts,"ax",%progbits
 1563              		.align	2
 1564              		.global	ADC_CountsTo_uVolts
 1565              		.thumb
 1566              		.thumb_func
 1567              		.type	ADC_CountsTo_uVolts, %function
 1568              	ADC_CountsTo_uVolts:
 1569              	.LFB18:
1088:Generated_Source\PSoC5/ADC.c **** 
 1570              		.loc 1 1088 0
 1571              		.cfi_startproc
 1572              		@ args = 0, pretend = 0, frame = 0
 1573              		@ frame_needed = 0, uses_anonymous_args = 0
 1574              		@ link register save eliminated.
 1575              	.LVL139:
 1576 0000 10B4     		push	{r4}
 1577              		.cfi_def_cfa_offset 4
 1578              		.cfi_offset 4, -4
1097:Generated_Source\PSoC5/ADC.c ****     {
 1579              		.loc 1 1097 0
 1580 0002 184B     		ldr	r3, .L119
 1581 0004 1B78     		ldrb	r3, [r3]	@ zero_extendqisi2
 1582 0006 DBB2     		uxtb	r3, r3
 1583 0008 012B     		cmp	r3, #1
 1584 000a 08D0     		beq	.L114
1104:Generated_Source\PSoC5/ADC.c ****     {
 1585              		.loc 1 1104 0
 1586 000c 154B     		ldr	r3, .L119
 1587 000e 1B78     		ldrb	r3, [r3]	@ zero_extendqisi2
 1588 0010 DBB2     		uxtb	r3, r3
 1589 0012 022B     		cmp	r3, #2
 1590 0014 05D0     		beq	.L115
1111:Generated_Source\PSoC5/ADC.c ****     {
 1591              		.loc 1 1111 0
 1592 0016 134B     		ldr	r3, .L119
 1593 0018 1B78     		ldrb	r3, [r3]	@ zero_extendqisi2
1113:Generated_Source\PSoC5/ADC.c ****         #if(ADC_CFG3_DEC_DIV != 0)
ARM GAS  C:\Users\celua\AppData\Local\Temp\cc8imhxh.s 			page 63


 1594              		.loc 1 1113 0
 1595 001a 1023     		movs	r3, #16
 1596 001c 02E0     		b	.L110
 1597              	.L114:
1099:Generated_Source\PSoC5/ADC.c ****         #if(ADC_CFG1_DEC_DIV != 0)
 1598              		.loc 1 1099 0
 1599 001e 1223     		movs	r3, #18
 1600 0020 00E0     		b	.L110
 1601              	.L115:
1106:Generated_Source\PSoC5/ADC.c ****         #if(ADC_CFG2_DEC_DIV != 0)
 1602              		.loc 1 1106 0
 1603 0022 1023     		movs	r3, #16
 1604              	.L110:
 1605              	.LVL140:
1126:Generated_Source\PSoC5/ADC.c ****     {
 1606              		.loc 1 1126 0
 1607 0024 102B     		cmp	r3, #16
 1608 0026 02D0     		beq	.L112
 1609 0028 122B     		cmp	r3, #18
 1610 002a 07D0     		beq	.L116
 1611 002c 03E0     		b	.L117
 1612              	.L112:
1170:Generated_Source\PSoC5/ADC.c ****                 break;
 1613              		.loc 1 1170 0
 1614 002e 2021     		movs	r1, #32
1169:Generated_Source\PSoC5/ADC.c ****                 coefB = ADC_DIVISOR_32;
 1615              		.loc 1 1169 0
 1616 0030 47F61224 		movw	r4, #31250
 1617 0034 05E0     		b	.L113
 1618              	.L117:
 1619              	.LVL141:
1212:Generated_Source\PSoC5/ADC.c ****             break;
 1620              		.loc 1 1212 0
 1621 0036 0121     		movs	r1, #1
1211:Generated_Source\PSoC5/ADC.c ****             coefB = ADC_DIVISOR_1;
 1622              		.loc 1 1211 0
 1623 0038 0B4C     		ldr	r4, .L119+4
1213:Generated_Source\PSoC5/ADC.c ****     }
 1624              		.loc 1 1213 0
 1625 003a 02E0     		b	.L113
 1626              	.LVL142:
 1627              	.L116:
1188:Generated_Source\PSoC5/ADC.c ****                 break;
 1628              		.loc 1 1188 0
 1629 003c 7D21     		movs	r1, #125
1187:Generated_Source\PSoC5/ADC.c ****                 coefB = ADC_DIVISOR_125;
 1630              		.loc 1 1187 0
 1631 003e 4FF4FA54 		mov	r4, #8000
 1632              	.L113:
 1633              	.LVL143:
1215:Generated_Source\PSoC5/ADC.c ****     uVolts = ((coefA * adcCounts) / coefB) - ((coefA * ADC_Offset) / coefB);
 1634              		.loc 1 1215 0
 1635 0042 0A4B     		ldr	r3, .L119+8
 1636              	.LVL144:
 1637 0044 1B68     		ldr	r3, [r3]
 1638 0046 93FBF1F1 		sdiv	r1, r3, r1
 1639              	.LVL145:
ARM GAS  C:\Users\celua\AppData\Local\Temp\cc8imhxh.s 			page 64


1216:Generated_Source\PSoC5/ADC.c **** 
 1640              		.loc 1 1216 0
 1641 004a 00FB04F0 		mul	r0, r0, r4
 1642              	.LVL146:
 1643 004e 90FBF1F3 		sdiv	r3, r0, r1
 1644 0052 074A     		ldr	r2, .L119+12
 1645 0054 1268     		ldr	r2, [r2]
 1646 0056 02FB04F2 		mul	r2, r2, r4
 1647 005a 92FBF1F0 		sdiv	r0, r2, r1
 1648              	.LVL147:
1219:Generated_Source\PSoC5/ADC.c **** 
 1649              		.loc 1 1219 0
 1650 005e 181A     		subs	r0, r3, r0
 1651              	.LVL148:
 1652 0060 10BC     		pop	{r4}
 1653              		.cfi_restore 4
 1654              		.cfi_def_cfa_offset 0
 1655              	.LVL149:
 1656 0062 7047     		bx	lr
 1657              	.L120:
 1658              		.align	2
 1659              	.L119:
 1660 0064 00000000 		.word	.LANCHOR1
 1661 0068 40420F00 		.word	1000000
 1662 006c 00000000 		.word	ADC_CountsPerVolt
 1663 0070 00000000 		.word	ADC_Offset
 1664              		.cfi_endproc
 1665              	.LFE18:
 1666              		.size	ADC_CountsTo_uVolts, .-ADC_CountsTo_uVolts
 1667              		.section	.text.ADC_SelectConfiguration,"ax",%progbits
 1668              		.align	2
 1669              		.global	ADC_SelectConfiguration
 1670              		.thumb
 1671              		.thumb_func
 1672              		.type	ADC_SelectConfiguration, %function
 1673              	ADC_SelectConfiguration:
 1674              	.LFB20:
1554:Generated_Source\PSoC5/ADC.c ****     /* Check whether the configuration number is valid or not */
 1675              		.loc 1 1554 0
 1676              		.cfi_startproc
 1677              		@ args = 0, pretend = 0, frame = 0
 1678              		@ frame_needed = 0, uses_anonymous_args = 0
 1679              	.LVL150:
 1680 0000 38B5     		push	{r3, r4, r5, lr}
 1681              		.cfi_def_cfa_offset 16
 1682              		.cfi_offset 3, -16
 1683              		.cfi_offset 4, -12
 1684              		.cfi_offset 5, -8
 1685              		.cfi_offset 14, -4
1556:Generated_Source\PSoC5/ADC.c ****     {
 1686              		.loc 1 1556 0
 1687 0002 0128     		cmp	r0, #1
 1688 0004 20D1     		bne	.L122
 1689 0006 0446     		mov	r4, r0
 1690 0008 0D46     		mov	r5, r1
1561:Generated_Source\PSoC5/ADC.c ****         {
 1691              		.loc 1 1561 0
ARM GAS  C:\Users\celua\AppData\Local\Temp\cc8imhxh.s 			page 65


 1692 000a 114B     		ldr	r3, .L126
 1693 000c 9B79     		ldrb	r3, [r3, #6]	@ zero_extendqisi2
 1694 000e 13B9     		cbnz	r3, .L123
1563:Generated_Source\PSoC5/ADC.c ****         }
 1695              		.loc 1 1563 0
 1696 0010 0122     		movs	r2, #1
 1697 0012 0F4B     		ldr	r3, .L126
 1698 0014 DA71     		strb	r2, [r3, #7]
 1699              	.L123:
1567:Generated_Source\PSoC5/ADC.c **** 
 1700              		.loc 1 1567 0
 1701 0016 0F4B     		ldr	r3, .L126+4
 1702 0018 1C70     		strb	r4, [r3]
1570:Generated_Source\PSoC5/ADC.c **** 
 1703              		.loc 1 1570 0
 1704 001a FFF7FEFF 		bl	ADC_Stop
 1705              	.LVL151:
1573:Generated_Source\PSoC5/ADC.c **** 
 1706              		.loc 1 1573 0
 1707 001e 2046     		mov	r0, r4
 1708 0020 FFF7FEFF 		bl	ADC_InitConfig
 1709              	.LVL152:
1576:Generated_Source\PSoC5/ADC.c ****         CY_SET_REG16(ADC_DEC_GCOR_16B_PTR, ADC_gcor[config - 1u].gcor);
 1710              		.loc 1 1576 0
 1711 0024 013C     		subs	r4, r4, #1
 1712 0026 0A4B     		ldr	r3, .L126
 1713 0028 03EB8402 		add	r2, r3, r4, lsl #2
 1714 002c 9178     		ldrb	r1, [r2, #2]	@ zero_extendqisi2
 1715 002e 0A4A     		ldr	r2, .L126+8
 1716 0030 1170     		strb	r1, [r2]
1577:Generated_Source\PSoC5/ADC.c **** 
 1717              		.loc 1 1577 0
 1718 0032 33F82420 		ldrh	r2, [r3, r4, lsl #2]
 1719 0036 094B     		ldr	r3, .L126+12
 1720 0038 1A80     		strh	r2, [r3]	@ movhi
1579:Generated_Source\PSoC5/ADC.c ****         {
 1721              		.loc 1 1579 0
 1722 003a 012D     		cmp	r5, #1
 1723 003c 07D1     		bne	.L121
1582:Generated_Source\PSoC5/ADC.c **** 
 1724              		.loc 1 1582 0
 1725 003e FFF7FEFF 		bl	ADC_Start
 1726              	.LVL153:
1585:Generated_Source\PSoC5/ADC.c ****         }
 1727              		.loc 1 1585 0
 1728 0042 FFF7FEFF 		bl	ADC_StartConvert
 1729              	.LVL154:
 1730 0046 38BD     		pop	{r3, r4, r5, pc}
 1731              	.LVL155:
 1732              	.L122:
1591:Generated_Source\PSoC5/ADC.c ****     }
 1733              		.loc 1 1591 0 discriminator 1
 1734 0048 0020     		movs	r0, #0
 1735              	.LVL156:
 1736 004a FFF7FEFF 		bl	CyHalt
 1737              	.LVL157:
 1738              	.L121:
ARM GAS  C:\Users\celua\AppData\Local\Temp\cc8imhxh.s 			page 66


 1739 004e 38BD     		pop	{r3, r4, r5, pc}
 1740              	.L127:
 1741              		.align	2
 1742              	.L126:
 1743 0050 00000000 		.word	.LANCHOR0
 1744 0054 00000000 		.word	.LANCHOR1
 1745 0058 0E4E0040 		.word	1073761806
 1746 005c 0C4E0040 		.word	1073761804
 1747              		.cfi_endproc
 1748              	.LFE20:
 1749              		.size	ADC_SelectConfiguration, .-ADC_SelectConfiguration
 1750              		.section	.text.ADC_Read8,"ax",%progbits
 1751              		.align	2
 1752              		.global	ADC_Read8
 1753              		.thumb
 1754              		.thumb_func
 1755              		.type	ADC_Read8, %function
 1756              	ADC_Read8:
 1757              	.LFB23:
1741:Generated_Source\PSoC5/ADC.c **** }
1742:Generated_Source\PSoC5/ADC.c **** 
1743:Generated_Source\PSoC5/ADC.c **** 
1744:Generated_Source\PSoC5/ADC.c **** /*******************************************************************************
1745:Generated_Source\PSoC5/ADC.c **** * Function Name: ADC_Read8
1746:Generated_Source\PSoC5/ADC.c **** ********************************************************************************
1747:Generated_Source\PSoC5/ADC.c **** *
1748:Generated_Source\PSoC5/ADC.c **** * Summary:
1749:Generated_Source\PSoC5/ADC.c **** *  This function simplifies getting results from the ADC when only a
1750:Generated_Source\PSoC5/ADC.c **** *  single reading is required. When called, it will start ADC
1751:Generated_Source\PSoC5/ADC.c **** *  conversions, wait for the conversion to be complete, stop ADC
1752:Generated_Source\PSoC5/ADC.c **** *  conversion and return the result. This is a blocking function and will
1753:Generated_Source\PSoC5/ADC.c **** *  not return until the result is ready.
1754:Generated_Source\PSoC5/ADC.c **** *
1755:Generated_Source\PSoC5/ADC.c **** * Parameters:
1756:Generated_Source\PSoC5/ADC.c **** *  None
1757:Generated_Source\PSoC5/ADC.c **** *
1758:Generated_Source\PSoC5/ADC.c **** * Return:
1759:Generated_Source\PSoC5/ADC.c **** *  int8:  ADC result.
1760:Generated_Source\PSoC5/ADC.c **** *
1761:Generated_Source\PSoC5/ADC.c **** *******************************************************************************/
1762:Generated_Source\PSoC5/ADC.c **** int8 ADC_Read8(void) 
1763:Generated_Source\PSoC5/ADC.c **** {
 1758              		.loc 1 1763 0
 1759              		.cfi_startproc
 1760              		@ args = 0, pretend = 0, frame = 0
 1761              		@ frame_needed = 0, uses_anonymous_args = 0
 1762 0000 10B5     		push	{r4, lr}
 1763              		.cfi_def_cfa_offset 8
 1764              		.cfi_offset 4, -8
 1765              		.cfi_offset 14, -4
1764:Generated_Source\PSoC5/ADC.c ****     int8 result;
1765:Generated_Source\PSoC5/ADC.c **** 
1766:Generated_Source\PSoC5/ADC.c ****     /* Clear pending conversion done status */
1767:Generated_Source\PSoC5/ADC.c ****     ADC_DEC_SR_REG |= ADC_DEC_INTR_CLEAR;
 1766              		.loc 1 1767 0
 1767 0002 084A     		ldr	r2, .L130
 1768 0004 1378     		ldrb	r3, [r2]	@ zero_extendqisi2
ARM GAS  C:\Users\celua\AppData\Local\Temp\cc8imhxh.s 			page 67


 1769 0006 43F00403 		orr	r3, r3, #4
 1770 000a 1370     		strb	r3, [r2]
1768:Generated_Source\PSoC5/ADC.c ****     ADC_StartConvert();
 1771              		.loc 1 1768 0
 1772 000c FFF7FEFF 		bl	ADC_StartConvert
 1773              	.LVL158:
1769:Generated_Source\PSoC5/ADC.c ****     (void)ADC_IsEndConversion(ADC_WAIT_FOR_RESULT);
 1774              		.loc 1 1769 0
 1775 0010 0020     		movs	r0, #0
 1776 0012 FFF7FEFF 		bl	ADC_IsEndConversion
 1777              	.LVL159:
1770:Generated_Source\PSoC5/ADC.c ****      result = ADC_GetResult8();
 1778              		.loc 1 1770 0
 1779 0016 FFF7FEFF 		bl	ADC_GetResult8
 1780              	.LVL160:
 1781 001a 0446     		mov	r4, r0
 1782              	.LVL161:
1771:Generated_Source\PSoC5/ADC.c ****     ADC_StopConvert();
 1783              		.loc 1 1771 0
 1784 001c FFF7FEFF 		bl	ADC_StopConvert
 1785              	.LVL162:
1772:Generated_Source\PSoC5/ADC.c ****     
1773:Generated_Source\PSoC5/ADC.c ****      return(result);
1774:Generated_Source\PSoC5/ADC.c **** }
 1786              		.loc 1 1774 0
 1787 0020 2046     		mov	r0, r4
 1788 0022 10BD     		pop	{r4, pc}
 1789              	.LVL163:
 1790              	.L131:
 1791              		.align	2
 1792              	.L130:
 1793 0024 014E0040 		.word	1073761793
 1794              		.cfi_endproc
 1795              	.LFE23:
 1796              		.size	ADC_Read8, .-ADC_Read8
 1797              		.section	.text.ADC_Read16,"ax",%progbits
 1798              		.align	2
 1799              		.global	ADC_Read16
 1800              		.thumb
 1801              		.thumb_func
 1802              		.type	ADC_Read16, %function
 1803              	ADC_Read16:
 1804              	.LFB24:
1775:Generated_Source\PSoC5/ADC.c **** 
1776:Generated_Source\PSoC5/ADC.c **** 
1777:Generated_Source\PSoC5/ADC.c **** /*******************************************************************************
1778:Generated_Source\PSoC5/ADC.c **** * Function Name: ADC_Read16
1779:Generated_Source\PSoC5/ADC.c **** ********************************************************************************
1780:Generated_Source\PSoC5/ADC.c **** *
1781:Generated_Source\PSoC5/ADC.c **** * Summary:
1782:Generated_Source\PSoC5/ADC.c **** *  This function simplifies getting results from the ADC when only a
1783:Generated_Source\PSoC5/ADC.c **** *  single reading is required. When called, it will start ADC
1784:Generated_Source\PSoC5/ADC.c **** *  conversions, wait for the conversion to be complete, stop ADC
1785:Generated_Source\PSoC5/ADC.c **** *  conversion and return the result. This is a blocking function and will
1786:Generated_Source\PSoC5/ADC.c **** *  not return until the result is ready.
1787:Generated_Source\PSoC5/ADC.c **** *
1788:Generated_Source\PSoC5/ADC.c **** * Parameters:
ARM GAS  C:\Users\celua\AppData\Local\Temp\cc8imhxh.s 			page 68


1789:Generated_Source\PSoC5/ADC.c **** *   void
1790:Generated_Source\PSoC5/ADC.c **** *
1791:Generated_Source\PSoC5/ADC.c **** * Return:
1792:Generated_Source\PSoC5/ADC.c **** *  int16:  ADC result.
1793:Generated_Source\PSoC5/ADC.c **** *
1794:Generated_Source\PSoC5/ADC.c **** *******************************************************************************/
1795:Generated_Source\PSoC5/ADC.c **** int16 ADC_Read16(void) 
1796:Generated_Source\PSoC5/ADC.c **** {
 1805              		.loc 1 1796 0
 1806              		.cfi_startproc
 1807              		@ args = 0, pretend = 0, frame = 0
 1808              		@ frame_needed = 0, uses_anonymous_args = 0
 1809 0000 10B5     		push	{r4, lr}
 1810              		.cfi_def_cfa_offset 8
 1811              		.cfi_offset 4, -8
 1812              		.cfi_offset 14, -4
1797:Generated_Source\PSoC5/ADC.c ****     int16 result;
1798:Generated_Source\PSoC5/ADC.c **** 
1799:Generated_Source\PSoC5/ADC.c ****     /* Clear pending conversion done status */
1800:Generated_Source\PSoC5/ADC.c ****     ADC_DEC_SR_REG |= ADC_DEC_INTR_CLEAR;
 1813              		.loc 1 1800 0
 1814 0002 084A     		ldr	r2, .L134
 1815 0004 1378     		ldrb	r3, [r2]	@ zero_extendqisi2
 1816 0006 43F00403 		orr	r3, r3, #4
 1817 000a 1370     		strb	r3, [r2]
1801:Generated_Source\PSoC5/ADC.c ****     ADC_StartConvert();
 1818              		.loc 1 1801 0
 1819 000c FFF7FEFF 		bl	ADC_StartConvert
 1820              	.LVL164:
1802:Generated_Source\PSoC5/ADC.c ****     (void)ADC_IsEndConversion(ADC_WAIT_FOR_RESULT);
 1821              		.loc 1 1802 0
 1822 0010 0020     		movs	r0, #0
 1823 0012 FFF7FEFF 		bl	ADC_IsEndConversion
 1824              	.LVL165:
1803:Generated_Source\PSoC5/ADC.c ****      result = ADC_GetResult16();
 1825              		.loc 1 1803 0
 1826 0016 FFF7FEFF 		bl	ADC_GetResult16
 1827              	.LVL166:
 1828 001a 0446     		mov	r4, r0
 1829              	.LVL167:
1804:Generated_Source\PSoC5/ADC.c ****     ADC_StopConvert();
 1830              		.loc 1 1804 0
 1831 001c FFF7FEFF 		bl	ADC_StopConvert
 1832              	.LVL168:
1805:Generated_Source\PSoC5/ADC.c ****     
1806:Generated_Source\PSoC5/ADC.c ****      return(result);
1807:Generated_Source\PSoC5/ADC.c **** }
 1833              		.loc 1 1807 0
 1834 0020 2046     		mov	r0, r4
 1835 0022 10BD     		pop	{r4, pc}
 1836              	.LVL169:
 1837              	.L135:
 1838              		.align	2
 1839              	.L134:
 1840 0024 014E0040 		.word	1073761793
 1841              		.cfi_endproc
 1842              	.LFE24:
ARM GAS  C:\Users\celua\AppData\Local\Temp\cc8imhxh.s 			page 69


 1843              		.size	ADC_Read16, .-ADC_Read16
 1844              		.section	.text.ADC_Read32,"ax",%progbits
 1845              		.align	2
 1846              		.global	ADC_Read32
 1847              		.thumb
 1848              		.thumb_func
 1849              		.type	ADC_Read32, %function
 1850              	ADC_Read32:
 1851              	.LFB25:
1808:Generated_Source\PSoC5/ADC.c **** 
1809:Generated_Source\PSoC5/ADC.c **** 
1810:Generated_Source\PSoC5/ADC.c **** /*******************************************************************************
1811:Generated_Source\PSoC5/ADC.c **** * Function Name: ADC_Read32
1812:Generated_Source\PSoC5/ADC.c **** ********************************************************************************
1813:Generated_Source\PSoC5/ADC.c **** *
1814:Generated_Source\PSoC5/ADC.c **** * Summary:
1815:Generated_Source\PSoC5/ADC.c **** *  This function simplifies getting results from the ADC when only a
1816:Generated_Source\PSoC5/ADC.c **** *  single reading is required. When called, it will start ADC
1817:Generated_Source\PSoC5/ADC.c **** *  conversions, wait for the conversion to be complete, stop ADC
1818:Generated_Source\PSoC5/ADC.c **** *  conversion and return the result. This is a blocking function and will
1819:Generated_Source\PSoC5/ADC.c **** *  not return until the result is ready.
1820:Generated_Source\PSoC5/ADC.c **** *
1821:Generated_Source\PSoC5/ADC.c **** * Parameters:
1822:Generated_Source\PSoC5/ADC.c **** *  None
1823:Generated_Source\PSoC5/ADC.c **** *
1824:Generated_Source\PSoC5/ADC.c **** * Return:
1825:Generated_Source\PSoC5/ADC.c **** *  int32: ADC result.
1826:Generated_Source\PSoC5/ADC.c **** *
1827:Generated_Source\PSoC5/ADC.c **** *******************************************************************************/
1828:Generated_Source\PSoC5/ADC.c **** int32 ADC_Read32(void) 
1829:Generated_Source\PSoC5/ADC.c **** {
 1852              		.loc 1 1829 0
 1853              		.cfi_startproc
 1854              		@ args = 0, pretend = 0, frame = 0
 1855              		@ frame_needed = 0, uses_anonymous_args = 0
 1856 0000 10B5     		push	{r4, lr}
 1857              		.cfi_def_cfa_offset 8
 1858              		.cfi_offset 4, -8
 1859              		.cfi_offset 14, -4
1830:Generated_Source\PSoC5/ADC.c ****     int32 result;
1831:Generated_Source\PSoC5/ADC.c ****     
1832:Generated_Source\PSoC5/ADC.c ****     /* Clear pending conversion done status */
1833:Generated_Source\PSoC5/ADC.c ****     ADC_DEC_SR_REG |= ADC_DEC_INTR_CLEAR;
 1860              		.loc 1 1833 0
 1861 0002 084A     		ldr	r2, .L138
 1862 0004 1378     		ldrb	r3, [r2]	@ zero_extendqisi2
 1863 0006 43F00403 		orr	r3, r3, #4
 1864 000a 1370     		strb	r3, [r2]
1834:Generated_Source\PSoC5/ADC.c ****     ADC_StartConvert();
 1865              		.loc 1 1834 0
 1866 000c FFF7FEFF 		bl	ADC_StartConvert
 1867              	.LVL170:
1835:Generated_Source\PSoC5/ADC.c ****     (void)ADC_IsEndConversion(ADC_WAIT_FOR_RESULT);
 1868              		.loc 1 1835 0
 1869 0010 0020     		movs	r0, #0
 1870 0012 FFF7FEFF 		bl	ADC_IsEndConversion
 1871              	.LVL171:
ARM GAS  C:\Users\celua\AppData\Local\Temp\cc8imhxh.s 			page 70


1836:Generated_Source\PSoC5/ADC.c ****      result = ADC_GetResult32();
 1872              		.loc 1 1836 0
 1873 0016 FFF7FEFF 		bl	ADC_GetResult32
 1874              	.LVL172:
 1875 001a 0446     		mov	r4, r0
 1876              	.LVL173:
1837:Generated_Source\PSoC5/ADC.c ****     ADC_StopConvert();
 1877              		.loc 1 1837 0
 1878 001c FFF7FEFF 		bl	ADC_StopConvert
 1879              	.LVL174:
1838:Generated_Source\PSoC5/ADC.c ****     
1839:Generated_Source\PSoC5/ADC.c ****      return(result);
1840:Generated_Source\PSoC5/ADC.c **** }
 1880              		.loc 1 1840 0
 1881 0020 2046     		mov	r0, r4
 1882 0022 10BD     		pop	{r4, pc}
 1883              	.LVL175:
 1884              	.L139:
 1885              		.align	2
 1886              	.L138:
 1887 0024 014E0040 		.word	1073761793
 1888              		.cfi_endproc
 1889              	.LFE25:
 1890              		.size	ADC_Read32, .-ADC_Read32
 1891              		.comm	ADC_CountsPerVolt,4,4
 1892              		.comm	ADC_Offset,4,4
 1893              		.global	ADC_Config
 1894              		.global	ADC_started
 1895              		.global	ADC_initVar
 1896              		.global	ADC_stopConversion
 1897              		.global	ADC_convDone
 1898              		.data
 1899              		.set	.LANCHOR1,. + 0
 1900              		.type	ADC_Config, %object
 1901              		.size	ADC_Config, 1
 1902              	ADC_Config:
 1903 0000 01       		.byte	1
 1904              		.bss
 1905              		.align	2
 1906              		.set	.LANCHOR0,. + 0
 1907              		.type	ADC_gcor, %object
 1908              		.size	ADC_gcor, 4
 1909              	ADC_gcor:
 1910 0000 00000000 		.space	4
 1911              		.type	ADC_stopConversion, %object
 1912              		.size	ADC_stopConversion, 1
 1913              	ADC_stopConversion:
 1914 0004 00       		.space	1
 1915              		.type	ADC_convDone, %object
 1916              		.size	ADC_convDone, 1
 1917              	ADC_convDone:
 1918 0005 00       		.space	1
 1919              		.type	ADC_initVar, %object
 1920              		.size	ADC_initVar, 1
 1921              	ADC_initVar:
 1922 0006 00       		.space	1
 1923              		.type	ADC_started, %object
ARM GAS  C:\Users\celua\AppData\Local\Temp\cc8imhxh.s 			page 71


 1924              		.size	ADC_started, 1
 1925              	ADC_started:
 1926 0007 00       		.space	1
 1927              		.text
 1928              	.Letext0:
 1929              		.file 2 "Generated_Source\\PSoC5\\cytypes.h"
 1930              		.file 3 "Generated_Source\\PSoC5\\ADC.h"
 1931              		.file 4 "Generated_Source\\PSoC5\\CyLib.h"
 1932              		.file 5 "Generated_Source\\PSoC5\\ADC_AMux.h"
 1933              		.file 6 "Generated_Source\\PSoC5\\ADC_Ext_CP_Clk.h"
 1934              		.file 7 "Generated_Source\\PSoC5\\ADC_theACLK.h"
 1935              		.section	.debug_info,"",%progbits
 1936              	.Ldebug_info0:
 1937 0000 190A0000 		.4byte	0xa19
 1938 0004 0400     		.2byte	0x4
 1939 0006 00000000 		.4byte	.Ldebug_abbrev0
 1940 000a 04       		.byte	0x4
 1941 000b 01       		.uleb128 0x1
 1942 000c F3030000 		.4byte	.LASF101
 1943 0010 0C       		.byte	0xc
 1944 0011 92000000 		.4byte	.LASF102
 1945 0015 84020000 		.4byte	.LASF103
 1946 0019 00000000 		.4byte	.Ldebug_ranges0+0
 1947 001d 00000000 		.4byte	0
 1948 0021 00000000 		.4byte	.Ldebug_line0
 1949 0025 02       		.uleb128 0x2
 1950 0026 04       		.byte	0x4
 1951 0027 04       		.byte	0x4
 1952 0028 4E030000 		.4byte	.LASF0
 1953 002c 02       		.uleb128 0x2
 1954 002d 01       		.byte	0x1
 1955 002e 06       		.byte	0x6
 1956 002f E9000000 		.4byte	.LASF1
 1957 0033 02       		.uleb128 0x2
 1958 0034 01       		.byte	0x1
 1959 0035 08       		.byte	0x8
 1960 0036 8C030000 		.4byte	.LASF2
 1961 003a 02       		.uleb128 0x2
 1962 003b 02       		.byte	0x2
 1963 003c 05       		.byte	0x5
 1964 003d B2030000 		.4byte	.LASF3
 1965 0041 02       		.uleb128 0x2
 1966 0042 02       		.byte	0x2
 1967 0043 07       		.byte	0x7
 1968 0044 31020000 		.4byte	.LASF4
 1969 0048 02       		.uleb128 0x2
 1970 0049 04       		.byte	0x4
 1971 004a 05       		.byte	0x5
 1972 004b 2B010000 		.4byte	.LASF5
 1973 004f 02       		.uleb128 0x2
 1974 0050 04       		.byte	0x4
 1975 0051 07       		.byte	0x7
 1976 0052 F8010000 		.4byte	.LASF6
 1977 0056 02       		.uleb128 0x2
 1978 0057 08       		.byte	0x8
 1979 0058 05       		.byte	0x5
 1980 0059 DB000000 		.4byte	.LASF7
ARM GAS  C:\Users\celua\AppData\Local\Temp\cc8imhxh.s 			page 72


 1981 005d 02       		.uleb128 0x2
 1982 005e 08       		.byte	0x8
 1983 005f 07       		.byte	0x7
 1984 0060 7B000000 		.4byte	.LASF8
 1985 0064 03       		.uleb128 0x3
 1986 0065 04       		.byte	0x4
 1987 0066 05       		.byte	0x5
 1988 0067 696E7400 		.ascii	"int\000"
 1989 006b 02       		.uleb128 0x2
 1990 006c 04       		.byte	0x4
 1991 006d 07       		.byte	0x7
 1992 006e DC010000 		.4byte	.LASF9
 1993 0072 04       		.uleb128 0x4
 1994 0073 4E010000 		.4byte	.LASF10
 1995 0077 02       		.byte	0x2
 1996 0078 9201     		.2byte	0x192
 1997 007a 33000000 		.4byte	0x33
 1998 007e 04       		.uleb128 0x4
 1999 007f 00000000 		.4byte	.LASF11
 2000 0083 02       		.byte	0x2
 2001 0084 9301     		.2byte	0x193
 2002 0086 41000000 		.4byte	0x41
 2003 008a 04       		.uleb128 0x4
 2004 008b 7B010000 		.4byte	.LASF12
 2005 008f 02       		.byte	0x2
 2006 0090 9401     		.2byte	0x194
 2007 0092 4F000000 		.4byte	0x4f
 2008 0096 04       		.uleb128 0x4
 2009 0097 44020000 		.4byte	.LASF13
 2010 009b 02       		.byte	0x2
 2011 009c 9501     		.2byte	0x195
 2012 009e 2C000000 		.4byte	0x2c
 2013 00a2 04       		.uleb128 0x4
 2014 00a3 69050000 		.4byte	.LASF14
 2015 00a7 02       		.byte	0x2
 2016 00a8 9601     		.2byte	0x196
 2017 00aa 3A000000 		.4byte	0x3a
 2018 00ae 04       		.uleb128 0x4
 2019 00af 0E010000 		.4byte	.LASF15
 2020 00b3 02       		.byte	0x2
 2021 00b4 9701     		.2byte	0x197
 2022 00b6 48000000 		.4byte	0x48
 2023 00ba 04       		.uleb128 0x4
 2024 00bb E9010000 		.4byte	.LASF16
 2025 00bf 02       		.byte	0x2
 2026 00c0 9801     		.2byte	0x198
 2027 00c2 25000000 		.4byte	0x25
 2028 00c6 02       		.uleb128 0x2
 2029 00c7 08       		.byte	0x8
 2030 00c8 04       		.byte	0x4
 2031 00c9 5E010000 		.4byte	.LASF17
 2032 00cd 02       		.uleb128 0x2
 2033 00ce 01       		.byte	0x1
 2034 00cf 08       		.byte	0x8
 2035 00d0 D5040000 		.4byte	.LASF18
 2036 00d4 04       		.uleb128 0x4
 2037 00d5 68030000 		.4byte	.LASF19
ARM GAS  C:\Users\celua\AppData\Local\Temp\cc8imhxh.s 			page 73


 2038 00d9 02       		.byte	0x2
 2039 00da 3C02     		.2byte	0x23c
 2040 00dc E0000000 		.4byte	0xe0
 2041 00e0 05       		.uleb128 0x5
 2042 00e1 72000000 		.4byte	0x72
 2043 00e5 04       		.uleb128 0x4
 2044 00e6 48010000 		.4byte	.LASF20
 2045 00ea 02       		.byte	0x2
 2046 00eb 3D02     		.2byte	0x23d
 2047 00ed F1000000 		.4byte	0xf1
 2048 00f1 05       		.uleb128 0x5
 2049 00f2 7E000000 		.4byte	0x7e
 2050 00f6 04       		.uleb128 0x4
 2051 00f7 7E020000 		.4byte	.LASF21
 2052 00fb 02       		.byte	0x2
 2053 00fc 3E02     		.2byte	0x23e
 2054 00fe 02010000 		.4byte	0x102
 2055 0102 05       		.uleb128 0x5
 2056 0103 8A000000 		.4byte	0x8a
 2057 0107 02       		.uleb128 0x2
 2058 0108 08       		.byte	0x8
 2059 0109 04       		.byte	0x4
 2060 010a B3020000 		.4byte	.LASF22
 2061 010e 02       		.uleb128 0x2
 2062 010f 04       		.byte	0x4
 2063 0110 07       		.byte	0x7
 2064 0111 AA020000 		.4byte	.LASF23
 2065 0115 06       		.uleb128 0x6
 2066 0116 04       		.byte	0x4
 2067 0117 03       		.byte	0x3
 2068 0118 2F       		.byte	0x2f
 2069 0119 36010000 		.4byte	0x136
 2070 011d 07       		.uleb128 0x7
 2071 011e 6D000000 		.4byte	.LASF24
 2072 0122 03       		.byte	0x3
 2073 0123 31       		.byte	0x31
 2074 0124 7E000000 		.4byte	0x7e
 2075 0128 00       		.byte	0
 2076 0129 07       		.uleb128 0x7
 2077 012a E8040000 		.4byte	.LASF25
 2078 012e 03       		.byte	0x3
 2079 012f 32       		.byte	0x32
 2080 0130 72000000 		.4byte	0x72
 2081 0134 02       		.byte	0x2
 2082 0135 00       		.byte	0
 2083 0136 08       		.uleb128 0x8
 2084 0137 21020000 		.4byte	.LASF26
 2085 013b 03       		.byte	0x3
 2086 013c 33       		.byte	0x33
 2087 013d 15010000 		.4byte	0x115
 2088 0141 09       		.uleb128 0x9
 2089 0142 63020000 		.4byte	.LASF36
 2090 0146 01       		.byte	0x1
 2091 0147 5106     		.2byte	0x651
 2092 0149 00000000 		.4byte	.LFB21
 2093 014d DC000000 		.4byte	.LFE21-.LFB21
 2094 0151 01       		.uleb128 0x1
ARM GAS  C:\Users\celua\AppData\Local\Temp\cc8imhxh.s 			page 74


 2095 0152 9C       		.byte	0x9c
 2096 0153 F7010000 		.4byte	0x1f7
 2097 0157 0A       		.uleb128 0xa
 2098 0158 25000000 		.4byte	.LASF27
 2099 015c 01       		.byte	0x1
 2100 015d 5106     		.2byte	0x651
 2101 015f 72000000 		.4byte	0x72
 2102 0163 00000000 		.4byte	.LLST0
 2103 0167 0A       		.uleb128 0xa
 2104 0168 6D030000 		.4byte	.LASF28
 2105 016c 01       		.byte	0x1
 2106 016d 5106     		.2byte	0x651
 2107 016f 7E000000 		.4byte	0x7e
 2108 0173 3A000000 		.4byte	.LLST1
 2109 0177 0A       		.uleb128 0xa
 2110 0178 CB000000 		.4byte	.LASF29
 2111 017c 01       		.byte	0x1
 2112 017d 5106     		.2byte	0x651
 2113 017f 7E000000 		.4byte	0x7e
 2114 0183 74000000 		.4byte	.LLST2
 2115 0187 0A       		.uleb128 0xa
 2116 0188 91040000 		.4byte	.LASF30
 2117 018c 01       		.byte	0x1
 2118 018d 5206     		.2byte	0x652
 2119 018f 72000000 		.4byte	0x72
 2120 0193 AE000000 		.4byte	.LLST3
 2121 0197 0A       		.uleb128 0xa
 2122 0198 E1040000 		.4byte	.LASF31
 2123 019c 01       		.byte	0x1
 2124 019d 5206     		.2byte	0x652
 2125 019f 72000000 		.4byte	0x72
 2126 01a3 01010000 		.4byte	.LLST4
 2127 01a7 0B       		.uleb128 0xb
 2128 01a8 78020000 		.4byte	.LASF32
 2129 01ac 01       		.byte	0x1
 2130 01ad 5406     		.2byte	0x654
 2131 01af 96000000 		.4byte	0x96
 2132 01b3 2D010000 		.4byte	.LLST5
 2133 01b7 0B       		.uleb128 0xb
 2134 01b8 7A030000 		.4byte	.LASF33
 2135 01bc 01       		.byte	0x1
 2136 01bd 5506     		.2byte	0x655
 2137 01bf AE000000 		.4byte	0xae
 2138 01c3 A3010000 		.4byte	.LLST6
 2139 01c7 0B       		.uleb128 0xb
 2140 01c8 59020000 		.4byte	.LASF34
 2141 01cc 01       		.byte	0x1
 2142 01cd 5606     		.2byte	0x656
 2143 01cf 7E000000 		.4byte	0x7e
 2144 01d3 B6010000 		.4byte	.LLST7
 2145 01d7 0B       		.uleb128 0xb
 2146 01d8 C5030000 		.4byte	.LASF35
 2147 01dc 01       		.byte	0x1
 2148 01dd 5706     		.2byte	0x657
 2149 01df 8A000000 		.4byte	0x8a
 2150 01e3 DF010000 		.4byte	.LLST8
 2151 01e7 0C       		.uleb128 0xc
ARM GAS  C:\Users\celua\AppData\Local\Temp\cc8imhxh.s 			page 75


 2152 01e8 B4000000 		.4byte	.LVL33
 2153 01ec A3090000 		.4byte	0x9a3
 2154 01f0 0D       		.uleb128 0xd
 2155 01f1 01       		.uleb128 0x1
 2156 01f2 50       		.byte	0x50
 2157 01f3 01       		.uleb128 0x1
 2158 01f4 30       		.byte	0x30
 2159 01f5 00       		.byte	0
 2160 01f6 00       		.byte	0
 2161 01f7 09       		.uleb128 0x9
 2162 01f8 9D010000 		.4byte	.LASF37
 2163 01fc 01       		.byte	0x1
 2164 01fd BC06     		.2byte	0x6bc
 2165 01ff 00000000 		.4byte	.LFB22
 2166 0203 4C000000 		.4byte	.LFE22-.LFB22
 2167 0207 01       		.uleb128 0x1
 2168 0208 9C       		.byte	0x9c
 2169 0209 5A020000 		.4byte	0x25a
 2170 020d 0A       		.uleb128 0xa
 2171 020e AF010000 		.4byte	.LASF38
 2172 0212 01       		.byte	0x1
 2173 0213 BC06     		.2byte	0x6bc
 2174 0215 72000000 		.4byte	0x72
 2175 0219 F2010000 		.4byte	.LLST9
 2176 021d 0B       		.uleb128 0xb
 2177 021e 35050000 		.4byte	.LASF39
 2178 0222 01       		.byte	0x1
 2179 0223 BE06     		.2byte	0x6be
 2180 0225 72000000 		.4byte	0x72
 2181 0229 13020000 		.4byte	.LLST10
 2182 022d 0E       		.uleb128 0xe
 2183 022e 08000000 		.4byte	.LVL36
 2184 0232 AE090000 		.4byte	0x9ae
 2185 0236 0F       		.uleb128 0xf
 2186 0237 28000000 		.4byte	.LVL38
 2187 023b B9090000 		.4byte	0x9b9
 2188 023f 49020000 		.4byte	0x249
 2189 0243 0D       		.uleb128 0xd
 2190 0244 01       		.uleb128 0x1
 2191 0245 50       		.byte	0x50
 2192 0246 01       		.uleb128 0x1
 2193 0247 33       		.byte	0x33
 2194 0248 00       		.byte	0
 2195 0249 0C       		.uleb128 0xc
 2196 024a 3E000000 		.4byte	.LVL39
 2197 024e C4090000 		.4byte	0x9c4
 2198 0252 0D       		.uleb128 0xd
 2199 0253 01       		.uleb128 0x1
 2200 0254 50       		.byte	0x50
 2201 0255 02       		.uleb128 0x2
 2202 0256 76       		.byte	0x76
 2203 0257 00       		.sleb128 0
 2204 0258 00       		.byte	0
 2205 0259 00       		.byte	0
 2206 025a 09       		.uleb128 0x9
 2207 025b E8020000 		.4byte	.LASF40
 2208 025f 01       		.byte	0x1
ARM GAS  C:\Users\celua\AppData\Local\Temp\cc8imhxh.s 			page 76


 2209 0260 DA04     		.2byte	0x4da
 2210 0262 00000000 		.4byte	.LFB19
 2211 0266 E4000000 		.4byte	.LFE19-.LFB19
 2212 026a 01       		.uleb128 0x1
 2213 026b 9C       		.byte	0x9c
 2214 026c EB020000 		.4byte	0x2eb
 2215 0270 0A       		.uleb128 0xa
 2216 0271 E1040000 		.4byte	.LASF31
 2217 0275 01       		.byte	0x1
 2218 0276 DA04     		.2byte	0x4da
 2219 0278 72000000 		.4byte	0x72
 2220 027c 26020000 		.4byte	.LLST11
 2221 0280 0F       		.uleb128 0xf
 2222 0281 88000000 		.4byte	.LVL43
 2223 0285 F7010000 		.4byte	0x1f7
 2224 0289 94020000 		.4byte	0x294
 2225 028d 0D       		.uleb128 0xd
 2226 028e 01       		.uleb128 0x1
 2227 028f 50       		.byte	0x50
 2228 0290 02       		.uleb128 0x2
 2229 0291 08       		.byte	0x8
 2230 0292 52       		.byte	0x52
 2231 0293 00       		.byte	0
 2232 0294 0F       		.uleb128 0xf
 2233 0295 AA000000 		.4byte	.LVL44
 2234 0299 CF090000 		.4byte	0x9cf
 2235 029d A8020000 		.4byte	0x2a8
 2236 02a1 0D       		.uleb128 0xd
 2237 02a2 01       		.uleb128 0x1
 2238 02a3 50       		.byte	0x50
 2239 02a4 02       		.uleb128 0x2
 2240 02a5 74       		.byte	0x74
 2241 02a6 00       		.sleb128 0
 2242 02a7 00       		.byte	0
 2243 02a8 0F       		.uleb128 0xf
 2244 02a9 BA000000 		.4byte	.LVL45
 2245 02ad DA090000 		.4byte	0x9da
 2246 02b1 C2020000 		.4byte	0x2c2
 2247 02b5 0D       		.uleb128 0xd
 2248 02b6 01       		.uleb128 0x1
 2249 02b7 50       		.byte	0x50
 2250 02b8 02       		.uleb128 0x2
 2251 02b9 75       		.byte	0x75
 2252 02ba 00       		.sleb128 0
 2253 02bb 0D       		.uleb128 0xd
 2254 02bc 01       		.uleb128 0x1
 2255 02bd 51       		.byte	0x51
 2256 02be 02       		.uleb128 0x2
 2257 02bf 75       		.byte	0x75
 2258 02c0 00       		.sleb128 0
 2259 02c1 00       		.byte	0
 2260 02c2 0F       		.uleb128 0xf
 2261 02c3 C2000000 		.4byte	.LVL46
 2262 02c7 E5090000 		.4byte	0x9e5
 2263 02cb DB020000 		.4byte	0x2db
 2264 02cf 0D       		.uleb128 0xd
 2265 02d0 01       		.uleb128 0x1
ARM GAS  C:\Users\celua\AppData\Local\Temp\cc8imhxh.s 			page 77


 2266 02d1 50       		.byte	0x50
 2267 02d2 01       		.uleb128 0x1
 2268 02d3 39       		.byte	0x39
 2269 02d4 0D       		.uleb128 0xd
 2270 02d5 01       		.uleb128 0x1
 2271 02d6 51       		.byte	0x51
 2272 02d7 02       		.uleb128 0x2
 2273 02d8 75       		.byte	0x75
 2274 02d9 00       		.sleb128 0
 2275 02da 00       		.byte	0
 2276 02db 0C       		.uleb128 0xc
 2277 02dc CA000000 		.4byte	.LVL47
 2278 02e0 F0090000 		.4byte	0x9f0
 2279 02e4 0D       		.uleb128 0xd
 2280 02e5 01       		.uleb128 0x1
 2281 02e6 50       		.byte	0x50
 2282 02e7 01       		.uleb128 0x1
 2283 02e8 4D       		.byte	0x4d
 2284 02e9 00       		.byte	0
 2285 02ea 00       		.byte	0
 2286 02eb 10       		.uleb128 0x10
 2287 02ec 72000000 		.4byte	.LASF41
 2288 02f0 01       		.byte	0x1
 2289 02f1 5B       		.byte	0x5b
 2290 02f2 00000000 		.4byte	.LFB0
 2291 02f6 C4000000 		.4byte	.LFE0-.LFB0
 2292 02fa 01       		.uleb128 0x1
 2293 02fb 9C       		.byte	0x9c
 2294 02fc 75030000 		.4byte	0x375
 2295 0300 0F       		.uleb128 0xf
 2296 0301 16000000 		.4byte	.LVL49
 2297 0305 FB090000 		.4byte	0x9fb
 2298 0309 13030000 		.4byte	0x313
 2299 030d 0D       		.uleb128 0xd
 2300 030e 01       		.uleb128 0x1
 2301 030f 50       		.byte	0x50
 2302 0310 01       		.uleb128 0x1
 2303 0311 40       		.byte	0x40
 2304 0312 00       		.byte	0
 2305 0313 0F       		.uleb128 0xf
 2306 0314 1C000000 		.4byte	.LVL50
 2307 0318 060A0000 		.4byte	0xa06
 2308 031c 26030000 		.4byte	0x326
 2309 0320 0D       		.uleb128 0xd
 2310 0321 01       		.uleb128 0x1
 2311 0322 50       		.byte	0x50
 2312 0323 01       		.uleb128 0x1
 2313 0324 40       		.byte	0x40
 2314 0325 00       		.byte	0
 2315 0326 0F       		.uleb128 0xf
 2316 0327 24000000 		.4byte	.LVL51
 2317 032b 110A0000 		.4byte	0xa11
 2318 032f 3E030000 		.4byte	0x33e
 2319 0333 0D       		.uleb128 0xd
 2320 0334 01       		.uleb128 0x1
 2321 0335 50       		.byte	0x50
 2322 0336 01       		.uleb128 0x1
ARM GAS  C:\Users\celua\AppData\Local\Temp\cc8imhxh.s 			page 78


 2323 0337 4D       		.byte	0x4d
 2324 0338 0D       		.uleb128 0xd
 2325 0339 01       		.uleb128 0x1
 2326 033a 51       		.byte	0x51
 2327 033b 01       		.uleb128 0x1
 2328 033c 37       		.byte	0x37
 2329 033d 00       		.byte	0
 2330 033e 0F       		.uleb128 0xf
 2331 033f 84000000 		.4byte	.LVL52
 2332 0343 41010000 		.4byte	0x141
 2333 0347 6B030000 		.4byte	0x36b
 2334 034b 0D       		.uleb128 0xd
 2335 034c 01       		.uleb128 0x1
 2336 034d 50       		.byte	0x50
 2337 034e 01       		.uleb128 0x1
 2338 034f 32       		.byte	0x32
 2339 0350 0D       		.uleb128 0xd
 2340 0351 01       		.uleb128 0x1
 2341 0352 51       		.byte	0x51
 2342 0353 03       		.uleb128 0x3
 2343 0354 0B       		.byte	0xb
 2344 0355 F08D     		.2byte	0x8df0
 2345 0357 0D       		.uleb128 0xd
 2346 0358 01       		.uleb128 0x1
 2347 0359 52       		.byte	0x52
 2348 035a 03       		.uleb128 0x3
 2349 035b 0B       		.byte	0xb
 2350 035c 0080     		.2byte	0x8000
 2351 035e 0D       		.uleb128 0xd
 2352 035f 01       		.uleb128 0x1
 2353 0360 53       		.byte	0x53
 2354 0361 01       		.uleb128 0x1
 2355 0362 42       		.byte	0x42
 2356 0363 0D       		.uleb128 0xd
 2357 0364 02       		.uleb128 0x2
 2358 0365 7D       		.byte	0x7d
 2359 0366 00       		.sleb128 0
 2360 0367 02       		.uleb128 0x2
 2361 0368 77       		.byte	0x77
 2362 0369 00       		.sleb128 0
 2363 036a 00       		.byte	0
 2364 036b 0E       		.uleb128 0xe
 2365 036c A4000000 		.4byte	.LVL53
 2366 0370 5A020000 		.4byte	0x25a
 2367 0374 00       		.byte	0
 2368 0375 10       		.uleb128 0x10
 2369 0376 46050000 		.4byte	.LASF42
 2370 037a 01       		.byte	0x1
 2371 037b B8       		.byte	0xb8
 2372 037c 00000000 		.4byte	.LFB1
 2373 0380 D8000000 		.4byte	.LFE1-.LFB1
 2374 0384 01       		.uleb128 0x1
 2375 0385 9C       		.byte	0x9c
 2376 0386 D1030000 		.4byte	0x3d1
 2377 038a 11       		.uleb128 0x11
 2378 038b E1040000 		.4byte	.LASF31
 2379 038f 01       		.byte	0x1
ARM GAS  C:\Users\celua\AppData\Local\Temp\cc8imhxh.s 			page 79


 2380 0390 BA       		.byte	0xba
 2381 0391 72000000 		.4byte	0x72
 2382 0395 12       		.uleb128 0x12
 2383 0396 35050000 		.4byte	.LASF39
 2384 039a 01       		.byte	0x1
 2385 039b BB       		.byte	0xbb
 2386 039c 72000000 		.4byte	0x72
 2387 03a0 52020000 		.4byte	.LLST12
 2388 03a4 0E       		.uleb128 0xe
 2389 03a5 06000000 		.4byte	.LVL54
 2390 03a9 AE090000 		.4byte	0x9ae
 2391 03ad 0F       		.uleb128 0xf
 2392 03ae 54000000 		.4byte	.LVL57
 2393 03b2 B9090000 		.4byte	0x9b9
 2394 03b6 C0030000 		.4byte	0x3c0
 2395 03ba 0D       		.uleb128 0xd
 2396 03bb 01       		.uleb128 0x1
 2397 03bc 50       		.byte	0x50
 2398 03bd 01       		.uleb128 0x1
 2399 03be 33       		.byte	0x33
 2400 03bf 00       		.byte	0
 2401 03c0 0C       		.uleb128 0xc
 2402 03c1 B0000000 		.4byte	.LVL58
 2403 03c5 C4090000 		.4byte	0x9c4
 2404 03c9 0D       		.uleb128 0xd
 2405 03ca 01       		.uleb128 0x1
 2406 03cb 50       		.byte	0x50
 2407 03cc 02       		.uleb128 0x2
 2408 03cd 76       		.byte	0x76
 2409 03ce 00       		.sleb128 0
 2410 03cf 00       		.byte	0
 2411 03d0 00       		.byte	0
 2412 03d1 13       		.uleb128 0x13
 2413 03d2 14010000 		.4byte	.LASF43
 2414 03d6 01       		.byte	0x1
 2415 03d7 4901     		.2byte	0x149
 2416 03d9 00000000 		.4byte	.LFB2
 2417 03dd 28000000 		.4byte	.LFE2-.LFB2
 2418 03e1 01       		.uleb128 0x1
 2419 03e2 9C       		.byte	0x9c
 2420 03e3 FA030000 		.4byte	0x3fa
 2421 03e7 0E       		.uleb128 0xe
 2422 03e8 16000000 		.4byte	.LVL60
 2423 03ec EB020000 		.4byte	0x2eb
 2424 03f0 0E       		.uleb128 0xe
 2425 03f1 20000000 		.4byte	.LVL61
 2426 03f5 75030000 		.4byte	0x375
 2427 03f9 00       		.byte	0
 2428 03fa 13       		.uleb128 0x13
 2429 03fb BC030000 		.4byte	.LASF44
 2430 03ff 01       		.byte	0x1
 2431 0400 6A01     		.2byte	0x16a
 2432 0402 00000000 		.4byte	.LFB3
 2433 0406 E4000000 		.4byte	.LFE3-.LFB3
 2434 040a 01       		.uleb128 0x1
 2435 040b 9C       		.byte	0x9c
 2436 040c 4D040000 		.4byte	0x44d
ARM GAS  C:\Users\celua\AppData\Local\Temp\cc8imhxh.s 			page 80


 2437 0410 0B       		.uleb128 0xb
 2438 0411 35050000 		.4byte	.LASF39
 2439 0415 01       		.byte	0x1
 2440 0416 6C01     		.2byte	0x16c
 2441 0418 72000000 		.4byte	0x72
 2442 041c 65020000 		.4byte	.LLST13
 2443 0420 0E       		.uleb128 0xe
 2444 0421 06000000 		.4byte	.LVL62
 2445 0425 AE090000 		.4byte	0x9ae
 2446 0429 0F       		.uleb128 0xf
 2447 042a 4C000000 		.4byte	.LVL64
 2448 042e B9090000 		.4byte	0x9b9
 2449 0432 3C040000 		.4byte	0x43c
 2450 0436 0D       		.uleb128 0xd
 2451 0437 01       		.uleb128 0x1
 2452 0438 50       		.byte	0x50
 2453 0439 01       		.uleb128 0x1
 2454 043a 33       		.byte	0x33
 2455 043b 00       		.byte	0
 2456 043c 0C       		.uleb128 0xc
 2457 043d CC000000 		.4byte	.LVL65
 2458 0441 C4090000 		.4byte	0x9c4
 2459 0445 0D       		.uleb128 0xd
 2460 0446 01       		.uleb128 0x1
 2461 0447 50       		.byte	0x50
 2462 0448 02       		.uleb128 0x2
 2463 0449 76       		.byte	0x76
 2464 044a 00       		.sleb128 0
 2465 044b 00       		.byte	0
 2466 044c 00       		.byte	0
 2467 044d 13       		.uleb128 0x13
 2468 044e FC000000 		.4byte	.LASF45
 2469 0452 01       		.byte	0x1
 2470 0453 AD01     		.2byte	0x1ad
 2471 0455 00000000 		.4byte	.LFB4
 2472 0459 18000000 		.4byte	.LFE4-.LFB4
 2473 045d 01       		.uleb128 0x1
 2474 045e 9C       		.byte	0x9c
 2475 045f 84040000 		.4byte	0x484
 2476 0463 0A       		.uleb128 0xa
 2477 0464 3D030000 		.4byte	.LASF46
 2478 0468 01       		.byte	0x1
 2479 0469 AD01     		.2byte	0x1ad
 2480 046b 72000000 		.4byte	0x72
 2481 046f 78020000 		.4byte	.LLST14
 2482 0473 0B       		.uleb128 0xb
 2483 0474 8F050000 		.4byte	.LASF47
 2484 0478 01       		.byte	0x1
 2485 0479 AF01     		.2byte	0x1af
 2486 047b 72000000 		.4byte	0x72
 2487 047f 99020000 		.4byte	.LLST15
 2488 0483 00       		.byte	0
 2489 0484 13       		.uleb128 0x13
 2490 0485 05050000 		.4byte	.LASF48
 2491 0489 01       		.byte	0x1
 2492 048a D101     		.2byte	0x1d1
 2493 048c 00000000 		.4byte	.LFB5
ARM GAS  C:\Users\celua\AppData\Local\Temp\cc8imhxh.s 			page 81


 2494 0490 18000000 		.4byte	.LFE5-.LFB5
 2495 0494 01       		.uleb128 0x1
 2496 0495 9C       		.byte	0x9c
 2497 0496 BB040000 		.4byte	0x4bb
 2498 049a 0A       		.uleb128 0xa
 2499 049b 22030000 		.4byte	.LASF49
 2500 049f 01       		.byte	0x1
 2501 04a0 D101     		.2byte	0x1d1
 2502 04a2 72000000 		.4byte	0x72
 2503 04a6 B7020000 		.4byte	.LLST16
 2504 04aa 0B       		.uleb128 0xb
 2505 04ab 8F050000 		.4byte	.LASF47
 2506 04af 01       		.byte	0x1
 2507 04b0 D301     		.2byte	0x1d3
 2508 04b2 72000000 		.4byte	0x72
 2509 04b6 D8020000 		.4byte	.LLST17
 2510 04ba 00       		.byte	0
 2511 04bb 14       		.uleb128 0x14
 2512 04bc BF020000 		.4byte	.LASF53
 2513 04c0 01       		.byte	0x1
 2514 04c1 F901     		.2byte	0x1f9
 2515 04c3 72000000 		.4byte	0x72
 2516 04c7 00000000 		.4byte	.LFB6
 2517 04cb 74000000 		.4byte	.LFE6-.LFB6
 2518 04cf 01       		.uleb128 0x1
 2519 04d0 9C       		.byte	0x9c
 2520 04d1 16050000 		.4byte	0x516
 2521 04d5 0A       		.uleb128 0xa
 2522 04d6 5E050000 		.4byte	.LASF50
 2523 04da 01       		.byte	0x1
 2524 04db F901     		.2byte	0x1f9
 2525 04dd BA000000 		.4byte	0xba
 2526 04e1 F6020000 		.4byte	.LLST18
 2527 04e5 0B       		.uleb128 0xb
 2528 04e6 8F050000 		.4byte	.LASF47
 2529 04ea 01       		.byte	0x1
 2530 04eb FB01     		.2byte	0x1fb
 2531 04ed 7E000000 		.4byte	0x7e
 2532 04f1 24030000 		.4byte	.LLST19
 2533 04f5 0B       		.uleb128 0xb
 2534 04f6 F5000000 		.4byte	.LASF51
 2535 04fa 01       		.byte	0x1
 2536 04fb FC01     		.2byte	0x1fc
 2537 04fd 72000000 		.4byte	0x72
 2538 0501 5C030000 		.4byte	.LLST20
 2539 0505 0B       		.uleb128 0xb
 2540 0506 F5040000 		.4byte	.LASF52
 2541 050a 01       		.byte	0x1
 2542 050b FD01     		.2byte	0x1fd
 2543 050d BA000000 		.4byte	0xba
 2544 0511 7B030000 		.4byte	.LLST21
 2545 0515 00       		.byte	0
 2546 0516 15       		.uleb128 0x15
 2547 0517 51050000 		.4byte	.LASF54
 2548 051b 01       		.byte	0x1
 2549 051c 2802     		.2byte	0x228
 2550 051e 7E000000 		.4byte	0x7e
ARM GAS  C:\Users\celua\AppData\Local\Temp\cc8imhxh.s 			page 82


 2551 0522 00000000 		.4byte	.LFB7
 2552 0526 24000000 		.4byte	.LFE7-.LFB7
 2553 052a 01       		.uleb128 0x1
 2554 052b 9C       		.byte	0x9c
 2555 052c 51050000 		.4byte	0x551
 2556 0530 0B       		.uleb128 0xb
 2557 0531 DA040000 		.4byte	.LASF55
 2558 0535 01       		.byte	0x1
 2559 0536 2A02     		.2byte	0x22a
 2560 0538 72000000 		.4byte	0x72
 2561 053c BA030000 		.4byte	.LLST22
 2562 0540 0B       		.uleb128 0xb
 2563 0541 59020000 		.4byte	.LASF34
 2564 0545 01       		.byte	0x1
 2565 0546 2B02     		.2byte	0x22b
 2566 0548 7E000000 		.4byte	0x7e
 2567 054c CD030000 		.4byte	.LLST23
 2568 0550 00       		.byte	0
 2569 0551 16       		.uleb128 0x16
 2570 0552 BA000000 		.4byte	.LASF56
 2571 0556 01       		.byte	0x1
 2572 0557 4A02     		.2byte	0x24a
 2573 0559 00000000 		.4byte	.LFB8
 2574 055d 10000000 		.4byte	.LFE8-.LFB8
 2575 0561 01       		.uleb128 0x1
 2576 0562 9C       		.byte	0x9c
 2577 0563 16       		.uleb128 0x16
 2578 0564 49020000 		.4byte	.LASF57
 2579 0568 01       		.byte	0x1
 2580 0569 6102     		.2byte	0x261
 2581 056b 00000000 		.4byte	.LFB9
 2582 056f 10000000 		.4byte	.LFE9-.LFB9
 2583 0573 01       		.uleb128 0x1
 2584 0574 9C       		.byte	0x9c
 2585 0575 15       		.uleb128 0x15
 2586 0576 CB020000 		.4byte	.LASF58
 2587 057a 01       		.byte	0x1
 2588 057b 8402     		.2byte	0x284
 2589 057d 72000000 		.4byte	0x72
 2590 0581 00000000 		.4byte	.LFB10
 2591 0585 30000000 		.4byte	.LFE10-.LFB10
 2592 0589 01       		.uleb128 0x1
 2593 058a 9C       		.byte	0x9c
 2594 058b B0050000 		.4byte	0x5b0
 2595 058f 0A       		.uleb128 0xa
 2596 0590 B5010000 		.4byte	.LASF59
 2597 0594 01       		.byte	0x1
 2598 0595 8402     		.2byte	0x284
 2599 0597 72000000 		.4byte	0x72
 2600 059b EB030000 		.4byte	.LLST24
 2601 059f 0B       		.uleb128 0xb
 2602 05a0 F5000000 		.4byte	.LASF51
 2603 05a4 01       		.byte	0x1
 2604 05a5 8602     		.2byte	0x286
 2605 05a7 72000000 		.4byte	0x72
 2606 05ab 0C040000 		.4byte	.LLST25
 2607 05af 00       		.byte	0
ARM GAS  C:\Users\celua\AppData\Local\Temp\cc8imhxh.s 			page 83


 2608 05b0 15       		.uleb128 0x15
 2609 05b1 F7020000 		.4byte	.LASF60
 2610 05b5 01       		.byte	0x1
 2611 05b6 B302     		.2byte	0x2b3
 2612 05b8 96000000 		.4byte	0x96
 2613 05bc 00000000 		.4byte	.LFB11
 2614 05c0 48000000 		.4byte	.LFE11-.LFB11
 2615 05c4 01       		.uleb128 0x1
 2616 05c5 9C       		.byte	0x9c
 2617 05c6 E9050000 		.4byte	0x5e9
 2618 05ca 17       		.uleb128 0x17
 2619 05cb 96050000 		.4byte	.LASF61
 2620 05cf 01       		.byte	0x1
 2621 05d0 B502     		.2byte	0x2b5
 2622 05d2 96000000 		.4byte	0x96
 2623 05d6 01       		.uleb128 0x1
 2624 05d7 50       		.byte	0x50
 2625 05d8 0B       		.uleb128 0xb
 2626 05d9 22030000 		.4byte	.LASF49
 2627 05dd 01       		.byte	0x1
 2628 05de B602     		.2byte	0x2b6
 2629 05e0 72000000 		.4byte	0x72
 2630 05e4 2A040000 		.4byte	.LLST26
 2631 05e8 00       		.byte	0
 2632 05e9 15       		.uleb128 0x15
 2633 05ea 9D050000 		.4byte	.LASF62
 2634 05ee 01       		.byte	0x1
 2635 05ef E902     		.2byte	0x2e9
 2636 05f1 A2000000 		.4byte	0xa2
 2637 05f5 00000000 		.4byte	.LFB12
 2638 05f9 50000000 		.4byte	.LFE12-.LFB12
 2639 05fd 01       		.uleb128 0x1
 2640 05fe 9C       		.byte	0x9c
 2641 05ff 24060000 		.4byte	0x624
 2642 0603 0B       		.uleb128 0xb
 2643 0604 96050000 		.4byte	.LASF61
 2644 0608 01       		.byte	0x1
 2645 0609 EB02     		.2byte	0x2eb
 2646 060b 7E000000 		.4byte	0x7e
 2647 060f 48040000 		.4byte	.LLST27
 2648 0613 0B       		.uleb128 0xb
 2649 0614 22030000 		.4byte	.LASF49
 2650 0618 01       		.byte	0x1
 2651 0619 EC02     		.2byte	0x2ec
 2652 061b 72000000 		.4byte	0x72
 2653 061f 71040000 		.4byte	.LLST28
 2654 0623 00       		.byte	0
 2655 0624 15       		.uleb128 0x15
 2656 0625 65010000 		.4byte	.LASF63
 2657 0629 01       		.byte	0x1
 2658 062a 2503     		.2byte	0x325
 2659 062c AE000000 		.4byte	0xae
 2660 0630 00000000 		.4byte	.LFB13
 2661 0634 6C000000 		.4byte	.LFE13-.LFB13
 2662 0638 01       		.uleb128 0x1
 2663 0639 9C       		.byte	0x9c
 2664 063a 5F060000 		.4byte	0x65f
ARM GAS  C:\Users\celua\AppData\Local\Temp\cc8imhxh.s 			page 84


 2665 063e 0B       		.uleb128 0xb
 2666 063f 96050000 		.4byte	.LASF61
 2667 0643 01       		.byte	0x1
 2668 0644 2703     		.2byte	0x327
 2669 0646 8A000000 		.4byte	0x8a
 2670 064a 8F040000 		.4byte	.LLST29
 2671 064e 0B       		.uleb128 0xb
 2672 064f 22030000 		.4byte	.LASF49
 2673 0653 01       		.byte	0x1
 2674 0654 2803     		.2byte	0x328
 2675 0656 72000000 		.4byte	0x72
 2676 065a F0040000 		.4byte	.LLST30
 2677 065e 00       		.byte	0
 2678 065f 13       		.uleb128 0x13
 2679 0660 6F050000 		.4byte	.LASF64
 2680 0664 01       		.byte	0x1
 2681 0665 8203     		.2byte	0x382
 2682 0667 00000000 		.4byte	.LFB14
 2683 066b 0C000000 		.4byte	.LFE14-.LFB14
 2684 066f 01       		.uleb128 0x1
 2685 0670 9C       		.byte	0x9c
 2686 0671 84060000 		.4byte	0x684
 2687 0675 18       		.uleb128 0x18
 2688 0676 FE040000 		.4byte	.LASF65
 2689 067a 01       		.byte	0x1
 2690 067b 8203     		.2byte	0x382
 2691 067d AE000000 		.4byte	0xae
 2692 0681 01       		.uleb128 0x1
 2693 0682 50       		.byte	0x50
 2694 0683 00       		.byte	0
 2695 0684 13       		.uleb128 0x13
 2696 0685 42030000 		.4byte	.LASF66
 2697 0689 01       		.byte	0x1
 2698 068a A503     		.2byte	0x3a5
 2699 068c 00000000 		.4byte	.LFB15
 2700 0690 0C000000 		.4byte	.LFE15-.LFB15
 2701 0694 01       		.uleb128 0x1
 2702 0695 9C       		.byte	0x9c
 2703 0696 A9060000 		.4byte	0x6a9
 2704 069a 18       		.uleb128 0x18
 2705 069b 07000000 		.4byte	.LASF67
 2706 069f 01       		.byte	0x1
 2707 06a0 A503     		.2byte	0x3a5
 2708 06a2 AE000000 		.4byte	0xae
 2709 06a6 01       		.uleb128 0x1
 2710 06a7 50       		.byte	0x50
 2711 06a8 00       		.byte	0
 2712 06a9 15       		.uleb128 0x15
 2713 06aa 54030000 		.4byte	.LASF68
 2714 06ae 01       		.byte	0x1
 2715 06af C003     		.2byte	0x3c0
 2716 06b1 A2000000 		.4byte	0xa2
 2717 06b5 00000000 		.4byte	.LFB16
 2718 06b9 24000000 		.4byte	.LFE16-.LFB16
 2719 06bd 01       		.uleb128 0x1
 2720 06be 9C       		.byte	0x9c
 2721 06bf E2060000 		.4byte	0x6e2
ARM GAS  C:\Users\celua\AppData\Local\Temp\cc8imhxh.s 			page 85


 2722 06c3 0A       		.uleb128 0xa
 2723 06c4 20050000 		.4byte	.LASF69
 2724 06c8 01       		.byte	0x1
 2725 06c9 C003     		.2byte	0x3c0
 2726 06cb AE000000 		.4byte	0xae
 2727 06cf 19050000 		.4byte	.LLST31
 2728 06d3 17       		.uleb128 0x17
 2729 06d4 EC030000 		.4byte	.LASF70
 2730 06d8 01       		.byte	0x1
 2731 06d9 C303     		.2byte	0x3c3
 2732 06db A2000000 		.4byte	0xa2
 2733 06df 01       		.uleb128 0x1
 2734 06e0 50       		.byte	0x50
 2735 06e1 00       		.byte	0
 2736 06e2 14       		.uleb128 0x14
 2737 06e3 30000000 		.4byte	.LASF71
 2738 06e7 01       		.byte	0x1
 2739 06e8 FD03     		.2byte	0x3fd
 2740 06ea BA000000 		.4byte	0xba
 2741 06ee 00000000 		.4byte	.LFB17
 2742 06f2 28000000 		.4byte	.LFE17-.LFB17
 2743 06f6 01       		.uleb128 0x1
 2744 06f7 9C       		.byte	0x9c
 2745 06f8 1B070000 		.4byte	0x71b
 2746 06fc 0A       		.uleb128 0xa
 2747 06fd 20050000 		.4byte	.LASF69
 2748 0701 01       		.byte	0x1
 2749 0702 FD03     		.2byte	0x3fd
 2750 0704 AE000000 		.4byte	0xae
 2751 0708 37050000 		.4byte	.LLST32
 2752 070c 17       		.uleb128 0x17
 2753 070d 75010000 		.4byte	.LASF72
 2754 0711 01       		.byte	0x1
 2755 0712 0004     		.2byte	0x400
 2756 0714 BA000000 		.4byte	0xba
 2757 0718 01       		.uleb128 0x1
 2758 0719 50       		.byte	0x50
 2759 071a 00       		.byte	0
 2760 071b 15       		.uleb128 0x15
 2761 071c 34010000 		.4byte	.LASF73
 2762 0720 01       		.byte	0x1
 2763 0721 3F04     		.2byte	0x43f
 2764 0723 AE000000 		.4byte	0xae
 2765 0727 00000000 		.4byte	.LFB18
 2766 072b 74000000 		.4byte	.LFE18-.LFB18
 2767 072f 01       		.uleb128 0x1
 2768 0730 9C       		.byte	0x9c
 2769 0731 86070000 		.4byte	0x786
 2770 0735 0A       		.uleb128 0xa
 2771 0736 20050000 		.4byte	.LASF69
 2772 073a 01       		.byte	0x1
 2773 073b 3F04     		.2byte	0x43f
 2774 073d AE000000 		.4byte	0xae
 2775 0741 65050000 		.4byte	.LLST33
 2776 0745 0B       		.uleb128 0xb
 2777 0746 F1010000 		.4byte	.LASF74
 2778 074a 01       		.byte	0x1
ARM GAS  C:\Users\celua\AppData\Local\Temp\cc8imhxh.s 			page 86


 2779 074b 4204     		.2byte	0x442
 2780 074d AE000000 		.4byte	0xae
 2781 0751 86050000 		.4byte	.LLST34
 2782 0755 0B       		.uleb128 0xb
 2783 0756 A7040000 		.4byte	.LASF75
 2784 075a 01       		.byte	0x1
 2785 075b 4304     		.2byte	0x443
 2786 075d AE000000 		.4byte	0xae
 2787 0761 A9050000 		.4byte	.LLST35
 2788 0765 0B       		.uleb128 0xb
 2789 0766 AD040000 		.4byte	.LASF76
 2790 076a 01       		.byte	0x1
 2791 076b 4404     		.2byte	0x444
 2792 076d AE000000 		.4byte	0xae
 2793 0771 CC050000 		.4byte	.LLST36
 2794 0775 0B       		.uleb128 0xb
 2795 0776 91040000 		.4byte	.LASF30
 2796 077a 01       		.byte	0x1
 2797 077b 4504     		.2byte	0x445
 2798 077d 72000000 		.4byte	0x72
 2799 0781 EB050000 		.4byte	.LLST37
 2800 0785 00       		.byte	0
 2801 0786 13       		.uleb128 0x13
 2802 0787 9A030000 		.4byte	.LASF77
 2803 078b 01       		.byte	0x1
 2804 078c 1006     		.2byte	0x610
 2805 078e 00000000 		.4byte	.LFB20
 2806 0792 60000000 		.4byte	.LFE20-.LFB20
 2807 0796 01       		.uleb128 0x1
 2808 0797 9C       		.byte	0x9c
 2809 0798 FB070000 		.4byte	0x7fb
 2810 079c 0A       		.uleb128 0xa
 2811 079d E1040000 		.4byte	.LASF31
 2812 07a1 01       		.byte	0x1
 2813 07a2 1006     		.2byte	0x610
 2814 07a4 72000000 		.4byte	0x72
 2815 07a8 FE050000 		.4byte	.LLST38
 2816 07ac 0A       		.uleb128 0xa
 2817 07ad ED040000 		.4byte	.LASF78
 2818 07b1 01       		.byte	0x1
 2819 07b2 1006     		.2byte	0x610
 2820 07b4 72000000 		.4byte	0x72
 2821 07b8 38060000 		.4byte	.LLST39
 2822 07bc 0E       		.uleb128 0xe
 2823 07bd 1E000000 		.4byte	.LVL151
 2824 07c1 FA030000 		.4byte	0x3fa
 2825 07c5 0F       		.uleb128 0xf
 2826 07c6 24000000 		.4byte	.LVL152
 2827 07ca 5A020000 		.4byte	0x25a
 2828 07ce D9070000 		.4byte	0x7d9
 2829 07d2 0D       		.uleb128 0xd
 2830 07d3 01       		.uleb128 0x1
 2831 07d4 50       		.byte	0x50
 2832 07d5 02       		.uleb128 0x2
 2833 07d6 74       		.byte	0x74
 2834 07d7 00       		.sleb128 0
 2835 07d8 00       		.byte	0
ARM GAS  C:\Users\celua\AppData\Local\Temp\cc8imhxh.s 			page 87


 2836 07d9 0E       		.uleb128 0xe
 2837 07da 42000000 		.4byte	.LVL153
 2838 07de D1030000 		.4byte	0x3d1
 2839 07e2 0E       		.uleb128 0xe
 2840 07e3 46000000 		.4byte	.LVL154
 2841 07e7 51050000 		.4byte	0x551
 2842 07eb 0C       		.uleb128 0xc
 2843 07ec 4E000000 		.4byte	.LVL157
 2844 07f0 A3090000 		.4byte	0x9a3
 2845 07f4 0D       		.uleb128 0xd
 2846 07f5 01       		.uleb128 0x1
 2847 07f6 50       		.byte	0x50
 2848 07f7 01       		.uleb128 0x1
 2849 07f8 30       		.byte	0x30
 2850 07f9 00       		.byte	0
 2851 07fa 00       		.byte	0
 2852 07fb 15       		.uleb128 0x15
 2853 07fc 16050000 		.4byte	.LASF79
 2854 0800 01       		.byte	0x1
 2855 0801 E206     		.2byte	0x6e2
 2856 0803 96000000 		.4byte	0x96
 2857 0807 00000000 		.4byte	.LFB23
 2858 080b 28000000 		.4byte	.LFE23-.LFB23
 2859 080f 01       		.uleb128 0x1
 2860 0810 9C       		.byte	0x9c
 2861 0811 54080000 		.4byte	0x854
 2862 0815 0B       		.uleb128 0xb
 2863 0816 96050000 		.4byte	.LASF61
 2864 081a 01       		.byte	0x1
 2865 081b E406     		.2byte	0x6e4
 2866 081d 96000000 		.4byte	0x96
 2867 0821 72060000 		.4byte	.LLST40
 2868 0825 0E       		.uleb128 0xe
 2869 0826 10000000 		.4byte	.LVL158
 2870 082a 51050000 		.4byte	0x551
 2871 082e 0F       		.uleb128 0xf
 2872 082f 16000000 		.4byte	.LVL159
 2873 0833 75050000 		.4byte	0x575
 2874 0837 41080000 		.4byte	0x841
 2875 083b 0D       		.uleb128 0xd
 2876 083c 01       		.uleb128 0x1
 2877 083d 50       		.byte	0x50
 2878 083e 01       		.uleb128 0x1
 2879 083f 30       		.byte	0x30
 2880 0840 00       		.byte	0
 2881 0841 0E       		.uleb128 0xe
 2882 0842 1A000000 		.4byte	.LVL160
 2883 0846 B0050000 		.4byte	0x5b0
 2884 084a 0E       		.uleb128 0xe
 2885 084b 20000000 		.4byte	.LVL162
 2886 084f 63050000 		.4byte	0x563
 2887 0853 00       		.byte	0
 2888 0854 15       		.uleb128 0x15
 2889 0855 62000000 		.4byte	.LASF80
 2890 0859 01       		.byte	0x1
 2891 085a 0307     		.2byte	0x703
 2892 085c A2000000 		.4byte	0xa2
ARM GAS  C:\Users\celua\AppData\Local\Temp\cc8imhxh.s 			page 88


 2893 0860 00000000 		.4byte	.LFB24
 2894 0864 28000000 		.4byte	.LFE24-.LFB24
 2895 0868 01       		.uleb128 0x1
 2896 0869 9C       		.byte	0x9c
 2897 086a AD080000 		.4byte	0x8ad
 2898 086e 0B       		.uleb128 0xb
 2899 086f 96050000 		.4byte	.LASF61
 2900 0873 01       		.byte	0x1
 2901 0874 0507     		.2byte	0x705
 2902 0876 A2000000 		.4byte	0xa2
 2903 087a 85060000 		.4byte	.LLST41
 2904 087e 0E       		.uleb128 0xe
 2905 087f 10000000 		.4byte	.LVL164
 2906 0883 51050000 		.4byte	0x551
 2907 0887 0F       		.uleb128 0xf
 2908 0888 16000000 		.4byte	.LVL165
 2909 088c 75050000 		.4byte	0x575
 2910 0890 9A080000 		.4byte	0x89a
 2911 0894 0D       		.uleb128 0xd
 2912 0895 01       		.uleb128 0x1
 2913 0896 50       		.byte	0x50
 2914 0897 01       		.uleb128 0x1
 2915 0898 30       		.byte	0x30
 2916 0899 00       		.byte	0
 2917 089a 0E       		.uleb128 0xe
 2918 089b 1A000000 		.4byte	.LVL166
 2919 089f E9050000 		.4byte	0x5e9
 2920 08a3 0E       		.uleb128 0xe
 2921 08a4 20000000 		.4byte	.LVL168
 2922 08a8 63050000 		.4byte	0x563
 2923 08ac 00       		.byte	0
 2924 08ad 15       		.uleb128 0x15
 2925 08ae 2A050000 		.4byte	.LASF81
 2926 08b2 01       		.byte	0x1
 2927 08b3 2407     		.2byte	0x724
 2928 08b5 AE000000 		.4byte	0xae
 2929 08b9 00000000 		.4byte	.LFB25
 2930 08bd 28000000 		.4byte	.LFE25-.LFB25
 2931 08c1 01       		.uleb128 0x1
 2932 08c2 9C       		.byte	0x9c
 2933 08c3 06090000 		.4byte	0x906
 2934 08c7 0B       		.uleb128 0xb
 2935 08c8 96050000 		.4byte	.LASF61
 2936 08cc 01       		.byte	0x1
 2937 08cd 2607     		.2byte	0x726
 2938 08cf AE000000 		.4byte	0xae
 2939 08d3 98060000 		.4byte	.LLST42
 2940 08d7 0E       		.uleb128 0xe
 2941 08d8 10000000 		.4byte	.LVL170
 2942 08dc 51050000 		.4byte	0x551
 2943 08e0 0F       		.uleb128 0xf
 2944 08e1 16000000 		.4byte	.LVL171
 2945 08e5 75050000 		.4byte	0x575
 2946 08e9 F3080000 		.4byte	0x8f3
 2947 08ed 0D       		.uleb128 0xd
 2948 08ee 01       		.uleb128 0x1
 2949 08ef 50       		.byte	0x50
ARM GAS  C:\Users\celua\AppData\Local\Temp\cc8imhxh.s 			page 89


 2950 08f0 01       		.uleb128 0x1
 2951 08f1 30       		.byte	0x30
 2952 08f2 00       		.byte	0
 2953 08f3 0E       		.uleb128 0xe
 2954 08f4 1A000000 		.4byte	.LVL172
 2955 08f8 24060000 		.4byte	0x624
 2956 08fc 0E       		.uleb128 0xe
 2957 08fd 20000000 		.4byte	.LVL174
 2958 0901 63050000 		.4byte	0x563
 2959 0905 00       		.byte	0
 2960 0906 19       		.uleb128 0x19
 2961 0907 36010000 		.4byte	0x136
 2962 090b 16090000 		.4byte	0x916
 2963 090f 1A       		.uleb128 0x1a
 2964 0910 0E010000 		.4byte	0x10e
 2965 0914 00       		.byte	0
 2966 0915 00       		.byte	0
 2967 0916 1B       		.uleb128 0x1b
 2968 0917 DF020000 		.4byte	.LASF82
 2969 091b 01       		.byte	0x1
 2970 091c 3D       		.byte	0x3d
 2971 091d 06090000 		.4byte	0x906
 2972 0921 05       		.uleb128 0x5
 2973 0922 03       		.byte	0x3
 2974 0923 00000000 		.4byte	ADC_gcor
 2975 0927 1C       		.uleb128 0x1c
 2976 0928 91010000 		.4byte	.LASF83
 2977 092c 01       		.byte	0x1
 2978 092d 2C       		.byte	0x2c
 2979 092e 72000000 		.4byte	0x72
 2980 0932 05       		.uleb128 0x5
 2981 0933 03       		.byte	0x3
 2982 0934 00000000 		.4byte	ADC_initVar
 2983 0938 1C       		.uleb128 0x1c
 2984 0939 1E010000 		.4byte	.LASF84
 2985 093d 01       		.byte	0x1
 2986 093e 24       		.byte	0x24
 2987 093f E0000000 		.4byte	0xe0
 2988 0943 05       		.uleb128 0x5
 2989 0944 03       		.byte	0x3
 2990 0945 00000000 		.4byte	ADC_convDone
 2991 0949 1C       		.uleb128 0x1c
 2992 094a 43000000 		.4byte	.LASF85
 2993 094e 01       		.byte	0x1
 2994 094f 29       		.byte	0x29
 2995 0950 E0000000 		.4byte	0xe0
 2996 0954 05       		.uleb128 0x5
 2997 0955 03       		.byte	0x3
 2998 0956 00000000 		.4byte	ADC_stopConversion
 2999 095a 1C       		.uleb128 0x1c
 3000 095b 56000000 		.4byte	.LASF86
 3001 095f 01       		.byte	0x1
 3002 0960 2F       		.byte	0x2f
 3003 0961 E0000000 		.4byte	0xe0
 3004 0965 05       		.uleb128 0x5
 3005 0966 03       		.byte	0x3
 3006 0967 00000000 		.4byte	ADC_started
ARM GAS  C:\Users\celua\AppData\Local\Temp\cc8imhxh.s 			page 90


 3007 096b 1C       		.uleb128 0x1c
 3008 096c AF000000 		.4byte	.LASF87
 3009 0970 01       		.byte	0x1
 3010 0971 32       		.byte	0x32
 3011 0972 E0000000 		.4byte	0xe0
 3012 0976 05       		.uleb128 0x5
 3013 0977 03       		.byte	0x3
 3014 0978 00000000 		.4byte	ADC_Config
 3015 097c 1C       		.uleb128 0x1c
 3016 097d 9C040000 		.4byte	.LASF88
 3017 0981 01       		.byte	0x1
 3018 0982 34       		.byte	0x34
 3019 0983 8D090000 		.4byte	0x98d
 3020 0987 05       		.uleb128 0x5
 3021 0988 03       		.byte	0x3
 3022 0989 00000000 		.4byte	ADC_Offset
 3023 098d 05       		.uleb128 0x5
 3024 098e AE000000 		.4byte	0xae
 3025 0992 1C       		.uleb128 0x1c
 3026 0993 7D050000 		.4byte	.LASF89
 3027 0997 01       		.byte	0x1
 3028 0998 35       		.byte	0x35
 3029 0999 8D090000 		.4byte	0x98d
 3030 099d 05       		.uleb128 0x5
 3031 099e 03       		.byte	0x3
 3032 099f 00000000 		.4byte	ADC_CountsPerVolt
 3033 09a3 1D       		.uleb128 0x1d
 3034 09a4 85030000 		.4byte	.LASF90
 3035 09a8 85030000 		.4byte	.LASF90
 3036 09ac 04       		.byte	0x4
 3037 09ad 7F       		.byte	0x7f
 3038 09ae 1D       		.uleb128 0x1d
 3039 09af 0A020000 		.4byte	.LASF91
 3040 09b3 0A020000 		.4byte	.LASF91
 3041 09b7 04       		.byte	0x4
 3042 09b8 7D       		.byte	0x7d
 3043 09b9 1D       		.uleb128 0x1d
 3044 09ba 54010000 		.4byte	.LASF92
 3045 09be 54010000 		.4byte	.LASF92
 3046 09c2 04       		.byte	0x4
 3047 09c3 77       		.byte	0x77
 3048 09c4 1D       		.uleb128 0x1d
 3049 09c5 0F000000 		.4byte	.LASF93
 3050 09c9 0F000000 		.4byte	.LASF93
 3051 09cd 04       		.byte	0x4
 3052 09ce 7E       		.byte	0x7e
 3053 09cf 1D       		.uleb128 0x1d
 3054 09d0 81040000 		.4byte	.LASF94
 3055 09d4 81040000 		.4byte	.LASF94
 3056 09d8 05       		.byte	0x5
 3057 09d9 57       		.byte	0x57
 3058 09da 1D       		.uleb128 0x1d
 3059 09db B3040000 		.4byte	.LASF95
 3060 09df B3040000 		.4byte	.LASF95
 3061 09e3 06       		.byte	0x6
 3062 09e4 2F       		.byte	0x2f
 3063 09e5 1D       		.uleb128 0x1d
ARM GAS  C:\Users\celua\AppData\Local\Temp\cc8imhxh.s 			page 91


 3064 09e6 BD010000 		.4byte	.LASF96
 3065 09ea BD010000 		.4byte	.LASF96
 3066 09ee 07       		.byte	0x7
 3067 09ef 2F       		.byte	0x2f
 3068 09f0 1D       		.uleb128 0x1d
 3069 09f1 82010000 		.4byte	.LASF97
 3070 09f5 82010000 		.4byte	.LASF97
 3071 09f9 04       		.byte	0x4
 3072 09fa 88       		.byte	0x88
 3073 09fb 1D       		.uleb128 0x1d
 3074 09fc CD030000 		.4byte	.LASF98
 3075 0a00 CD030000 		.4byte	.LASF98
 3076 0a04 06       		.byte	0x6
 3077 0a05 32       		.byte	0x32
 3078 0a06 1D       		.uleb128 0x1d
 3079 0a07 06030000 		.4byte	.LASF99
 3080 0a0b 06030000 		.4byte	.LASF99
 3081 0a0f 07       		.byte	0x7
 3082 0a10 32       		.byte	0x32
 3083 0a11 1D       		.uleb128 0x1d
 3084 0a12 2C030000 		.4byte	.LASF100
 3085 0a16 2C030000 		.4byte	.LASF100
 3086 0a1a 04       		.byte	0x4
 3087 0a1b 8B       		.byte	0x8b
 3088 0a1c 00       		.byte	0
 3089              		.section	.debug_abbrev,"",%progbits
 3090              	.Ldebug_abbrev0:
 3091 0000 01       		.uleb128 0x1
 3092 0001 11       		.uleb128 0x11
 3093 0002 01       		.byte	0x1
 3094 0003 25       		.uleb128 0x25
 3095 0004 0E       		.uleb128 0xe
 3096 0005 13       		.uleb128 0x13
 3097 0006 0B       		.uleb128 0xb
 3098 0007 03       		.uleb128 0x3
 3099 0008 0E       		.uleb128 0xe
 3100 0009 1B       		.uleb128 0x1b
 3101 000a 0E       		.uleb128 0xe
 3102 000b 55       		.uleb128 0x55
 3103 000c 17       		.uleb128 0x17
 3104 000d 11       		.uleb128 0x11
 3105 000e 01       		.uleb128 0x1
 3106 000f 10       		.uleb128 0x10
 3107 0010 17       		.uleb128 0x17
 3108 0011 00       		.byte	0
 3109 0012 00       		.byte	0
 3110 0013 02       		.uleb128 0x2
 3111 0014 24       		.uleb128 0x24
 3112 0015 00       		.byte	0
 3113 0016 0B       		.uleb128 0xb
 3114 0017 0B       		.uleb128 0xb
 3115 0018 3E       		.uleb128 0x3e
 3116 0019 0B       		.uleb128 0xb
 3117 001a 03       		.uleb128 0x3
 3118 001b 0E       		.uleb128 0xe
 3119 001c 00       		.byte	0
 3120 001d 00       		.byte	0
ARM GAS  C:\Users\celua\AppData\Local\Temp\cc8imhxh.s 			page 92


 3121 001e 03       		.uleb128 0x3
 3122 001f 24       		.uleb128 0x24
 3123 0020 00       		.byte	0
 3124 0021 0B       		.uleb128 0xb
 3125 0022 0B       		.uleb128 0xb
 3126 0023 3E       		.uleb128 0x3e
 3127 0024 0B       		.uleb128 0xb
 3128 0025 03       		.uleb128 0x3
 3129 0026 08       		.uleb128 0x8
 3130 0027 00       		.byte	0
 3131 0028 00       		.byte	0
 3132 0029 04       		.uleb128 0x4
 3133 002a 16       		.uleb128 0x16
 3134 002b 00       		.byte	0
 3135 002c 03       		.uleb128 0x3
 3136 002d 0E       		.uleb128 0xe
 3137 002e 3A       		.uleb128 0x3a
 3138 002f 0B       		.uleb128 0xb
 3139 0030 3B       		.uleb128 0x3b
 3140 0031 05       		.uleb128 0x5
 3141 0032 49       		.uleb128 0x49
 3142 0033 13       		.uleb128 0x13
 3143 0034 00       		.byte	0
 3144 0035 00       		.byte	0
 3145 0036 05       		.uleb128 0x5
 3146 0037 35       		.uleb128 0x35
 3147 0038 00       		.byte	0
 3148 0039 49       		.uleb128 0x49
 3149 003a 13       		.uleb128 0x13
 3150 003b 00       		.byte	0
 3151 003c 00       		.byte	0
 3152 003d 06       		.uleb128 0x6
 3153 003e 13       		.uleb128 0x13
 3154 003f 01       		.byte	0x1
 3155 0040 0B       		.uleb128 0xb
 3156 0041 0B       		.uleb128 0xb
 3157 0042 3A       		.uleb128 0x3a
 3158 0043 0B       		.uleb128 0xb
 3159 0044 3B       		.uleb128 0x3b
 3160 0045 0B       		.uleb128 0xb
 3161 0046 01       		.uleb128 0x1
 3162 0047 13       		.uleb128 0x13
 3163 0048 00       		.byte	0
 3164 0049 00       		.byte	0
 3165 004a 07       		.uleb128 0x7
 3166 004b 0D       		.uleb128 0xd
 3167 004c 00       		.byte	0
 3168 004d 03       		.uleb128 0x3
 3169 004e 0E       		.uleb128 0xe
 3170 004f 3A       		.uleb128 0x3a
 3171 0050 0B       		.uleb128 0xb
 3172 0051 3B       		.uleb128 0x3b
 3173 0052 0B       		.uleb128 0xb
 3174 0053 49       		.uleb128 0x49
 3175 0054 13       		.uleb128 0x13
 3176 0055 38       		.uleb128 0x38
 3177 0056 0B       		.uleb128 0xb
ARM GAS  C:\Users\celua\AppData\Local\Temp\cc8imhxh.s 			page 93


 3178 0057 00       		.byte	0
 3179 0058 00       		.byte	0
 3180 0059 08       		.uleb128 0x8
 3181 005a 16       		.uleb128 0x16
 3182 005b 00       		.byte	0
 3183 005c 03       		.uleb128 0x3
 3184 005d 0E       		.uleb128 0xe
 3185 005e 3A       		.uleb128 0x3a
 3186 005f 0B       		.uleb128 0xb
 3187 0060 3B       		.uleb128 0x3b
 3188 0061 0B       		.uleb128 0xb
 3189 0062 49       		.uleb128 0x49
 3190 0063 13       		.uleb128 0x13
 3191 0064 00       		.byte	0
 3192 0065 00       		.byte	0
 3193 0066 09       		.uleb128 0x9
 3194 0067 2E       		.uleb128 0x2e
 3195 0068 01       		.byte	0x1
 3196 0069 03       		.uleb128 0x3
 3197 006a 0E       		.uleb128 0xe
 3198 006b 3A       		.uleb128 0x3a
 3199 006c 0B       		.uleb128 0xb
 3200 006d 3B       		.uleb128 0x3b
 3201 006e 05       		.uleb128 0x5
 3202 006f 27       		.uleb128 0x27
 3203 0070 19       		.uleb128 0x19
 3204 0071 11       		.uleb128 0x11
 3205 0072 01       		.uleb128 0x1
 3206 0073 12       		.uleb128 0x12
 3207 0074 06       		.uleb128 0x6
 3208 0075 40       		.uleb128 0x40
 3209 0076 18       		.uleb128 0x18
 3210 0077 9742     		.uleb128 0x2117
 3211 0079 19       		.uleb128 0x19
 3212 007a 01       		.uleb128 0x1
 3213 007b 13       		.uleb128 0x13
 3214 007c 00       		.byte	0
 3215 007d 00       		.byte	0
 3216 007e 0A       		.uleb128 0xa
 3217 007f 05       		.uleb128 0x5
 3218 0080 00       		.byte	0
 3219 0081 03       		.uleb128 0x3
 3220 0082 0E       		.uleb128 0xe
 3221 0083 3A       		.uleb128 0x3a
 3222 0084 0B       		.uleb128 0xb
 3223 0085 3B       		.uleb128 0x3b
 3224 0086 05       		.uleb128 0x5
 3225 0087 49       		.uleb128 0x49
 3226 0088 13       		.uleb128 0x13
 3227 0089 02       		.uleb128 0x2
 3228 008a 17       		.uleb128 0x17
 3229 008b 00       		.byte	0
 3230 008c 00       		.byte	0
 3231 008d 0B       		.uleb128 0xb
 3232 008e 34       		.uleb128 0x34
 3233 008f 00       		.byte	0
 3234 0090 03       		.uleb128 0x3
ARM GAS  C:\Users\celua\AppData\Local\Temp\cc8imhxh.s 			page 94


 3235 0091 0E       		.uleb128 0xe
 3236 0092 3A       		.uleb128 0x3a
 3237 0093 0B       		.uleb128 0xb
 3238 0094 3B       		.uleb128 0x3b
 3239 0095 05       		.uleb128 0x5
 3240 0096 49       		.uleb128 0x49
 3241 0097 13       		.uleb128 0x13
 3242 0098 02       		.uleb128 0x2
 3243 0099 17       		.uleb128 0x17
 3244 009a 00       		.byte	0
 3245 009b 00       		.byte	0
 3246 009c 0C       		.uleb128 0xc
 3247 009d 898201   		.uleb128 0x4109
 3248 00a0 01       		.byte	0x1
 3249 00a1 11       		.uleb128 0x11
 3250 00a2 01       		.uleb128 0x1
 3251 00a3 31       		.uleb128 0x31
 3252 00a4 13       		.uleb128 0x13
 3253 00a5 00       		.byte	0
 3254 00a6 00       		.byte	0
 3255 00a7 0D       		.uleb128 0xd
 3256 00a8 8A8201   		.uleb128 0x410a
 3257 00ab 00       		.byte	0
 3258 00ac 02       		.uleb128 0x2
 3259 00ad 18       		.uleb128 0x18
 3260 00ae 9142     		.uleb128 0x2111
 3261 00b0 18       		.uleb128 0x18
 3262 00b1 00       		.byte	0
 3263 00b2 00       		.byte	0
 3264 00b3 0E       		.uleb128 0xe
 3265 00b4 898201   		.uleb128 0x4109
 3266 00b7 00       		.byte	0
 3267 00b8 11       		.uleb128 0x11
 3268 00b9 01       		.uleb128 0x1
 3269 00ba 31       		.uleb128 0x31
 3270 00bb 13       		.uleb128 0x13
 3271 00bc 00       		.byte	0
 3272 00bd 00       		.byte	0
 3273 00be 0F       		.uleb128 0xf
 3274 00bf 898201   		.uleb128 0x4109
 3275 00c2 01       		.byte	0x1
 3276 00c3 11       		.uleb128 0x11
 3277 00c4 01       		.uleb128 0x1
 3278 00c5 31       		.uleb128 0x31
 3279 00c6 13       		.uleb128 0x13
 3280 00c7 01       		.uleb128 0x1
 3281 00c8 13       		.uleb128 0x13
 3282 00c9 00       		.byte	0
 3283 00ca 00       		.byte	0
 3284 00cb 10       		.uleb128 0x10
 3285 00cc 2E       		.uleb128 0x2e
 3286 00cd 01       		.byte	0x1
 3287 00ce 3F       		.uleb128 0x3f
 3288 00cf 19       		.uleb128 0x19
 3289 00d0 03       		.uleb128 0x3
 3290 00d1 0E       		.uleb128 0xe
 3291 00d2 3A       		.uleb128 0x3a
ARM GAS  C:\Users\celua\AppData\Local\Temp\cc8imhxh.s 			page 95


 3292 00d3 0B       		.uleb128 0xb
 3293 00d4 3B       		.uleb128 0x3b
 3294 00d5 0B       		.uleb128 0xb
 3295 00d6 27       		.uleb128 0x27
 3296 00d7 19       		.uleb128 0x19
 3297 00d8 11       		.uleb128 0x11
 3298 00d9 01       		.uleb128 0x1
 3299 00da 12       		.uleb128 0x12
 3300 00db 06       		.uleb128 0x6
 3301 00dc 40       		.uleb128 0x40
 3302 00dd 18       		.uleb128 0x18
 3303 00de 9742     		.uleb128 0x2117
 3304 00e0 19       		.uleb128 0x19
 3305 00e1 01       		.uleb128 0x1
 3306 00e2 13       		.uleb128 0x13
 3307 00e3 00       		.byte	0
 3308 00e4 00       		.byte	0
 3309 00e5 11       		.uleb128 0x11
 3310 00e6 34       		.uleb128 0x34
 3311 00e7 00       		.byte	0
 3312 00e8 03       		.uleb128 0x3
 3313 00e9 0E       		.uleb128 0xe
 3314 00ea 3A       		.uleb128 0x3a
 3315 00eb 0B       		.uleb128 0xb
 3316 00ec 3B       		.uleb128 0x3b
 3317 00ed 0B       		.uleb128 0xb
 3318 00ee 49       		.uleb128 0x49
 3319 00ef 13       		.uleb128 0x13
 3320 00f0 00       		.byte	0
 3321 00f1 00       		.byte	0
 3322 00f2 12       		.uleb128 0x12
 3323 00f3 34       		.uleb128 0x34
 3324 00f4 00       		.byte	0
 3325 00f5 03       		.uleb128 0x3
 3326 00f6 0E       		.uleb128 0xe
 3327 00f7 3A       		.uleb128 0x3a
 3328 00f8 0B       		.uleb128 0xb
 3329 00f9 3B       		.uleb128 0x3b
 3330 00fa 0B       		.uleb128 0xb
 3331 00fb 49       		.uleb128 0x49
 3332 00fc 13       		.uleb128 0x13
 3333 00fd 02       		.uleb128 0x2
 3334 00fe 17       		.uleb128 0x17
 3335 00ff 00       		.byte	0
 3336 0100 00       		.byte	0
 3337 0101 13       		.uleb128 0x13
 3338 0102 2E       		.uleb128 0x2e
 3339 0103 01       		.byte	0x1
 3340 0104 3F       		.uleb128 0x3f
 3341 0105 19       		.uleb128 0x19
 3342 0106 03       		.uleb128 0x3
 3343 0107 0E       		.uleb128 0xe
 3344 0108 3A       		.uleb128 0x3a
 3345 0109 0B       		.uleb128 0xb
 3346 010a 3B       		.uleb128 0x3b
 3347 010b 05       		.uleb128 0x5
 3348 010c 27       		.uleb128 0x27
ARM GAS  C:\Users\celua\AppData\Local\Temp\cc8imhxh.s 			page 96


 3349 010d 19       		.uleb128 0x19
 3350 010e 11       		.uleb128 0x11
 3351 010f 01       		.uleb128 0x1
 3352 0110 12       		.uleb128 0x12
 3353 0111 06       		.uleb128 0x6
 3354 0112 40       		.uleb128 0x40
 3355 0113 18       		.uleb128 0x18
 3356 0114 9742     		.uleb128 0x2117
 3357 0116 19       		.uleb128 0x19
 3358 0117 01       		.uleb128 0x1
 3359 0118 13       		.uleb128 0x13
 3360 0119 00       		.byte	0
 3361 011a 00       		.byte	0
 3362 011b 14       		.uleb128 0x14
 3363 011c 2E       		.uleb128 0x2e
 3364 011d 01       		.byte	0x1
 3365 011e 3F       		.uleb128 0x3f
 3366 011f 19       		.uleb128 0x19
 3367 0120 03       		.uleb128 0x3
 3368 0121 0E       		.uleb128 0xe
 3369 0122 3A       		.uleb128 0x3a
 3370 0123 0B       		.uleb128 0xb
 3371 0124 3B       		.uleb128 0x3b
 3372 0125 05       		.uleb128 0x5
 3373 0126 27       		.uleb128 0x27
 3374 0127 19       		.uleb128 0x19
 3375 0128 49       		.uleb128 0x49
 3376 0129 13       		.uleb128 0x13
 3377 012a 11       		.uleb128 0x11
 3378 012b 01       		.uleb128 0x1
 3379 012c 12       		.uleb128 0x12
 3380 012d 06       		.uleb128 0x6
 3381 012e 40       		.uleb128 0x40
 3382 012f 18       		.uleb128 0x18
 3383 0130 9642     		.uleb128 0x2116
 3384 0132 19       		.uleb128 0x19
 3385 0133 01       		.uleb128 0x1
 3386 0134 13       		.uleb128 0x13
 3387 0135 00       		.byte	0
 3388 0136 00       		.byte	0
 3389 0137 15       		.uleb128 0x15
 3390 0138 2E       		.uleb128 0x2e
 3391 0139 01       		.byte	0x1
 3392 013a 3F       		.uleb128 0x3f
 3393 013b 19       		.uleb128 0x19
 3394 013c 03       		.uleb128 0x3
 3395 013d 0E       		.uleb128 0xe
 3396 013e 3A       		.uleb128 0x3a
 3397 013f 0B       		.uleb128 0xb
 3398 0140 3B       		.uleb128 0x3b
 3399 0141 05       		.uleb128 0x5
 3400 0142 27       		.uleb128 0x27
 3401 0143 19       		.uleb128 0x19
 3402 0144 49       		.uleb128 0x49
 3403 0145 13       		.uleb128 0x13
 3404 0146 11       		.uleb128 0x11
 3405 0147 01       		.uleb128 0x1
ARM GAS  C:\Users\celua\AppData\Local\Temp\cc8imhxh.s 			page 97


 3406 0148 12       		.uleb128 0x12
 3407 0149 06       		.uleb128 0x6
 3408 014a 40       		.uleb128 0x40
 3409 014b 18       		.uleb128 0x18
 3410 014c 9742     		.uleb128 0x2117
 3411 014e 19       		.uleb128 0x19
 3412 014f 01       		.uleb128 0x1
 3413 0150 13       		.uleb128 0x13
 3414 0151 00       		.byte	0
 3415 0152 00       		.byte	0
 3416 0153 16       		.uleb128 0x16
 3417 0154 2E       		.uleb128 0x2e
 3418 0155 00       		.byte	0
 3419 0156 3F       		.uleb128 0x3f
 3420 0157 19       		.uleb128 0x19
 3421 0158 03       		.uleb128 0x3
 3422 0159 0E       		.uleb128 0xe
 3423 015a 3A       		.uleb128 0x3a
 3424 015b 0B       		.uleb128 0xb
 3425 015c 3B       		.uleb128 0x3b
 3426 015d 05       		.uleb128 0x5
 3427 015e 27       		.uleb128 0x27
 3428 015f 19       		.uleb128 0x19
 3429 0160 11       		.uleb128 0x11
 3430 0161 01       		.uleb128 0x1
 3431 0162 12       		.uleb128 0x12
 3432 0163 06       		.uleb128 0x6
 3433 0164 40       		.uleb128 0x40
 3434 0165 18       		.uleb128 0x18
 3435 0166 9742     		.uleb128 0x2117
 3436 0168 19       		.uleb128 0x19
 3437 0169 00       		.byte	0
 3438 016a 00       		.byte	0
 3439 016b 17       		.uleb128 0x17
 3440 016c 34       		.uleb128 0x34
 3441 016d 00       		.byte	0
 3442 016e 03       		.uleb128 0x3
 3443 016f 0E       		.uleb128 0xe
 3444 0170 3A       		.uleb128 0x3a
 3445 0171 0B       		.uleb128 0xb
 3446 0172 3B       		.uleb128 0x3b
 3447 0173 05       		.uleb128 0x5
 3448 0174 49       		.uleb128 0x49
 3449 0175 13       		.uleb128 0x13
 3450 0176 02       		.uleb128 0x2
 3451 0177 18       		.uleb128 0x18
 3452 0178 00       		.byte	0
 3453 0179 00       		.byte	0
 3454 017a 18       		.uleb128 0x18
 3455 017b 05       		.uleb128 0x5
 3456 017c 00       		.byte	0
 3457 017d 03       		.uleb128 0x3
 3458 017e 0E       		.uleb128 0xe
 3459 017f 3A       		.uleb128 0x3a
 3460 0180 0B       		.uleb128 0xb
 3461 0181 3B       		.uleb128 0x3b
 3462 0182 05       		.uleb128 0x5
ARM GAS  C:\Users\celua\AppData\Local\Temp\cc8imhxh.s 			page 98


 3463 0183 49       		.uleb128 0x49
 3464 0184 13       		.uleb128 0x13
 3465 0185 02       		.uleb128 0x2
 3466 0186 18       		.uleb128 0x18
 3467 0187 00       		.byte	0
 3468 0188 00       		.byte	0
 3469 0189 19       		.uleb128 0x19
 3470 018a 01       		.uleb128 0x1
 3471 018b 01       		.byte	0x1
 3472 018c 49       		.uleb128 0x49
 3473 018d 13       		.uleb128 0x13
 3474 018e 01       		.uleb128 0x1
 3475 018f 13       		.uleb128 0x13
 3476 0190 00       		.byte	0
 3477 0191 00       		.byte	0
 3478 0192 1A       		.uleb128 0x1a
 3479 0193 21       		.uleb128 0x21
 3480 0194 00       		.byte	0
 3481 0195 49       		.uleb128 0x49
 3482 0196 13       		.uleb128 0x13
 3483 0197 2F       		.uleb128 0x2f
 3484 0198 0B       		.uleb128 0xb
 3485 0199 00       		.byte	0
 3486 019a 00       		.byte	0
 3487 019b 1B       		.uleb128 0x1b
 3488 019c 34       		.uleb128 0x34
 3489 019d 00       		.byte	0
 3490 019e 03       		.uleb128 0x3
 3491 019f 0E       		.uleb128 0xe
 3492 01a0 3A       		.uleb128 0x3a
 3493 01a1 0B       		.uleb128 0xb
 3494 01a2 3B       		.uleb128 0x3b
 3495 01a3 0B       		.uleb128 0xb
 3496 01a4 49       		.uleb128 0x49
 3497 01a5 13       		.uleb128 0x13
 3498 01a6 02       		.uleb128 0x2
 3499 01a7 18       		.uleb128 0x18
 3500 01a8 00       		.byte	0
 3501 01a9 00       		.byte	0
 3502 01aa 1C       		.uleb128 0x1c
 3503 01ab 34       		.uleb128 0x34
 3504 01ac 00       		.byte	0
 3505 01ad 03       		.uleb128 0x3
 3506 01ae 0E       		.uleb128 0xe
 3507 01af 3A       		.uleb128 0x3a
 3508 01b0 0B       		.uleb128 0xb
 3509 01b1 3B       		.uleb128 0x3b
 3510 01b2 0B       		.uleb128 0xb
 3511 01b3 49       		.uleb128 0x49
 3512 01b4 13       		.uleb128 0x13
 3513 01b5 3F       		.uleb128 0x3f
 3514 01b6 19       		.uleb128 0x19
 3515 01b7 02       		.uleb128 0x2
 3516 01b8 18       		.uleb128 0x18
 3517 01b9 00       		.byte	0
 3518 01ba 00       		.byte	0
 3519 01bb 1D       		.uleb128 0x1d
ARM GAS  C:\Users\celua\AppData\Local\Temp\cc8imhxh.s 			page 99


 3520 01bc 2E       		.uleb128 0x2e
 3521 01bd 00       		.byte	0
 3522 01be 3F       		.uleb128 0x3f
 3523 01bf 19       		.uleb128 0x19
 3524 01c0 3C       		.uleb128 0x3c
 3525 01c1 19       		.uleb128 0x19
 3526 01c2 6E       		.uleb128 0x6e
 3527 01c3 0E       		.uleb128 0xe
 3528 01c4 03       		.uleb128 0x3
 3529 01c5 0E       		.uleb128 0xe
 3530 01c6 3A       		.uleb128 0x3a
 3531 01c7 0B       		.uleb128 0xb
 3532 01c8 3B       		.uleb128 0x3b
 3533 01c9 0B       		.uleb128 0xb
 3534 01ca 00       		.byte	0
 3535 01cb 00       		.byte	0
 3536 01cc 00       		.byte	0
 3537              		.section	.debug_loc,"",%progbits
 3538              	.Ldebug_loc0:
 3539              	.LLST0:
 3540 0000 00000000 		.4byte	.LVL0
 3541 0004 0C000000 		.4byte	.LVL1
 3542 0008 0100     		.2byte	0x1
 3543 000a 50       		.byte	0x50
 3544 000b 0C000000 		.4byte	.LVL1
 3545 000f AE000000 		.4byte	.LVL31
 3546 0013 0400     		.2byte	0x4
 3547 0015 F3       		.byte	0xf3
 3548 0016 01       		.uleb128 0x1
 3549 0017 50       		.byte	0x50
 3550 0018 9F       		.byte	0x9f
 3551 0019 AE000000 		.4byte	.LVL31
 3552 001d B0000000 		.4byte	.LVL32
 3553 0021 0100     		.2byte	0x1
 3554 0023 50       		.byte	0x50
 3555 0024 B0000000 		.4byte	.LVL32
 3556 0028 DC000000 		.4byte	.LFE21
 3557 002c 0400     		.2byte	0x4
 3558 002e F3       		.byte	0xf3
 3559 002f 01       		.uleb128 0x1
 3560 0030 50       		.byte	0x50
 3561 0031 9F       		.byte	0x9f
 3562 0032 00000000 		.4byte	0
 3563 0036 00000000 		.4byte	0
 3564              	.LLST1:
 3565 003a 00000000 		.4byte	.LVL0
 3566 003e 74000000 		.4byte	.LVL19
 3567 0042 0100     		.2byte	0x1
 3568 0044 51       		.byte	0x51
 3569 0045 74000000 		.4byte	.LVL19
 3570 0049 AE000000 		.4byte	.LVL31
 3571 004d 0400     		.2byte	0x4
 3572 004f F3       		.byte	0xf3
 3573 0050 01       		.uleb128 0x1
 3574 0051 51       		.byte	0x51
 3575 0052 9F       		.byte	0x9f
 3576 0053 AE000000 		.4byte	.LVL31
ARM GAS  C:\Users\celua\AppData\Local\Temp\cc8imhxh.s 			page 100


 3577 0057 B3000000 		.4byte	.LVL33-1
 3578 005b 0100     		.2byte	0x1
 3579 005d 51       		.byte	0x51
 3580 005e B3000000 		.4byte	.LVL33-1
 3581 0062 DC000000 		.4byte	.LFE21
 3582 0066 0400     		.2byte	0x4
 3583 0068 F3       		.byte	0xf3
 3584 0069 01       		.uleb128 0x1
 3585 006a 51       		.byte	0x51
 3586 006b 9F       		.byte	0x9f
 3587 006c 00000000 		.4byte	0
 3588 0070 00000000 		.4byte	0
 3589              	.LLST2:
 3590 0074 00000000 		.4byte	.LVL0
 3591 0078 7C000000 		.4byte	.LVL22
 3592 007c 0100     		.2byte	0x1
 3593 007e 52       		.byte	0x52
 3594 007f 7C000000 		.4byte	.LVL22
 3595 0083 AE000000 		.4byte	.LVL31
 3596 0087 0400     		.2byte	0x4
 3597 0089 F3       		.byte	0xf3
 3598 008a 01       		.uleb128 0x1
 3599 008b 52       		.byte	0x52
 3600 008c 9F       		.byte	0x9f
 3601 008d AE000000 		.4byte	.LVL31
 3602 0091 B3000000 		.4byte	.LVL33-1
 3603 0095 0100     		.2byte	0x1
 3604 0097 52       		.byte	0x52
 3605 0098 B3000000 		.4byte	.LVL33-1
 3606 009c DC000000 		.4byte	.LFE21
 3607 00a0 0400     		.2byte	0x4
 3608 00a2 F3       		.byte	0xf3
 3609 00a3 01       		.uleb128 0x1
 3610 00a4 52       		.byte	0x52
 3611 00a5 9F       		.byte	0x9f
 3612 00a6 00000000 		.4byte	0
 3613 00aa 00000000 		.4byte	0
 3614              	.LLST3:
 3615 00ae 00000000 		.4byte	.LVL0
 3616 00b2 94000000 		.4byte	.LVL27
 3617 00b6 0100     		.2byte	0x1
 3618 00b8 53       		.byte	0x53
 3619 00b9 94000000 		.4byte	.LVL27
 3620 00bd 98000000 		.4byte	.LVL28
 3621 00c1 0400     		.2byte	0x4
 3622 00c3 F3       		.byte	0xf3
 3623 00c4 01       		.uleb128 0x1
 3624 00c5 53       		.byte	0x53
 3625 00c6 9F       		.byte	0x9f
 3626 00c7 98000000 		.4byte	.LVL28
 3627 00cb 9A000000 		.4byte	.LVL29
 3628 00cf 0100     		.2byte	0x1
 3629 00d1 53       		.byte	0x53
 3630 00d2 9A000000 		.4byte	.LVL29
 3631 00d6 AE000000 		.4byte	.LVL31
 3632 00da 0400     		.2byte	0x4
 3633 00dc F3       		.byte	0xf3
ARM GAS  C:\Users\celua\AppData\Local\Temp\cc8imhxh.s 			page 101


 3634 00dd 01       		.uleb128 0x1
 3635 00de 53       		.byte	0x53
 3636 00df 9F       		.byte	0x9f
 3637 00e0 AE000000 		.4byte	.LVL31
 3638 00e4 B3000000 		.4byte	.LVL33-1
 3639 00e8 0100     		.2byte	0x1
 3640 00ea 53       		.byte	0x53
 3641 00eb B3000000 		.4byte	.LVL33-1
 3642 00ef DC000000 		.4byte	.LFE21
 3643 00f3 0400     		.2byte	0x4
 3644 00f5 F3       		.byte	0xf3
 3645 00f6 01       		.uleb128 0x1
 3646 00f7 53       		.byte	0x53
 3647 00f8 9F       		.byte	0x9f
 3648 00f9 00000000 		.4byte	0
 3649 00fd 00000000 		.4byte	0
 3650              	.LLST4:
 3651 0101 00000000 		.4byte	.LVL0
 3652 0105 AE000000 		.4byte	.LVL31
 3653 0109 0200     		.2byte	0x2
 3654 010b 91       		.byte	0x91
 3655 010c 00       		.sleb128 0
 3656 010d AE000000 		.4byte	.LVL31
 3657 0111 B6000000 		.4byte	.LVL34
 3658 0115 0200     		.2byte	0x2
 3659 0117 91       		.byte	0x91
 3660 0118 00       		.sleb128 0
 3661 0119 B6000000 		.4byte	.LVL34
 3662 011d DC000000 		.4byte	.LFE21
 3663 0121 0200     		.2byte	0x2
 3664 0123 7D       		.byte	0x7d
 3665 0124 00       		.sleb128 0
 3666 0125 00000000 		.4byte	0
 3667 0129 00000000 		.4byte	0
 3668              	.LLST5:
 3669 012d 28000000 		.4byte	.LVL2
 3670 0131 2A000000 		.4byte	.LVL3
 3671 0135 0100     		.2byte	0x1
 3672 0137 50       		.byte	0x50
 3673 0138 30000000 		.4byte	.LVL4
 3674 013c 32000000 		.4byte	.LVL5
 3675 0140 0100     		.2byte	0x1
 3676 0142 50       		.byte	0x50
 3677 0143 3C000000 		.4byte	.LVL6
 3678 0147 3E000000 		.4byte	.LVL7
 3679 014b 0100     		.2byte	0x1
 3680 014d 50       		.byte	0x50
 3681 014e 44000000 		.4byte	.LVL8
 3682 0152 46000000 		.4byte	.LVL9
 3683 0156 0100     		.2byte	0x1
 3684 0158 50       		.byte	0x50
 3685 0159 50000000 		.4byte	.LVL10
 3686 015d 52000000 		.4byte	.LVL11
 3687 0161 0100     		.2byte	0x1
 3688 0163 50       		.byte	0x50
 3689 0164 58000000 		.4byte	.LVL12
 3690 0168 5A000000 		.4byte	.LVL13
ARM GAS  C:\Users\celua\AppData\Local\Temp\cc8imhxh.s 			page 102


 3691 016c 0100     		.2byte	0x1
 3692 016e 50       		.byte	0x50
 3693 016f 64000000 		.4byte	.LVL14
 3694 0173 66000000 		.4byte	.LVL15
 3695 0177 0100     		.2byte	0x1
 3696 0179 50       		.byte	0x50
 3697 017a 6C000000 		.4byte	.LVL16
 3698 017e 6E000000 		.4byte	.LVL17
 3699 0182 0100     		.2byte	0x1
 3700 0184 50       		.byte	0x50
 3701 0185 70000000 		.4byte	.LVL18
 3702 0189 8E000000 		.4byte	.LVL26
 3703 018d 0100     		.2byte	0x1
 3704 018f 50       		.byte	0x50
 3705 0190 98000000 		.4byte	.LVL28
 3706 0194 A4000000 		.4byte	.LVL30
 3707 0198 0100     		.2byte	0x1
 3708 019a 50       		.byte	0x50
 3709 019b 00000000 		.4byte	0
 3710 019f 00000000 		.4byte	0
 3711              	.LLST6:
 3712 01a3 74000000 		.4byte	.LVL19
 3713 01a7 78000000 		.4byte	.LVL20
 3714 01ab 0100     		.2byte	0x1
 3715 01ad 51       		.byte	0x51
 3716 01ae 00000000 		.4byte	0
 3717 01b2 00000000 		.4byte	0
 3718              	.LLST7:
 3719 01b6 7C000000 		.4byte	.LVL22
 3720 01ba 84000000 		.4byte	.LVL23
 3721 01be 0100     		.2byte	0x1
 3722 01c0 52       		.byte	0x52
 3723 01c1 84000000 		.4byte	.LVL23
 3724 01c5 88000000 		.4byte	.LVL24
 3725 01c9 0100     		.2byte	0x1
 3726 01cb 51       		.byte	0x51
 3727 01cc 8A000000 		.4byte	.LVL25
 3728 01d0 AE000000 		.4byte	.LVL31
 3729 01d4 0100     		.2byte	0x1
 3730 01d6 52       		.byte	0x52
 3731 01d7 00000000 		.4byte	0
 3732 01db 00000000 		.4byte	0
 3733              	.LLST8:
 3734 01df 78000000 		.4byte	.LVL20
 3735 01e3 7A000000 		.4byte	.LVL21
 3736 01e7 0100     		.2byte	0x1
 3737 01e9 51       		.byte	0x51
 3738 01ea 00000000 		.4byte	0
 3739 01ee 00000000 		.4byte	0
 3740              	.LLST9:
 3741 01f2 00000000 		.4byte	.LVL35
 3742 01f6 07000000 		.4byte	.LVL36-1
 3743 01fa 0100     		.2byte	0x1
 3744 01fc 50       		.byte	0x50
 3745 01fd 07000000 		.4byte	.LVL36-1
 3746 0201 4C000000 		.4byte	.LFE22
 3747 0205 0400     		.2byte	0x4
ARM GAS  C:\Users\celua\AppData\Local\Temp\cc8imhxh.s 			page 103


 3748 0207 F3       		.byte	0xf3
 3749 0208 01       		.uleb128 0x1
 3750 0209 50       		.byte	0x50
 3751 020a 9F       		.byte	0x9f
 3752 020b 00000000 		.4byte	0
 3753 020f 00000000 		.4byte	0
 3754              	.LLST10:
 3755 0213 0A000000 		.4byte	.LVL37
 3756 0217 40000000 		.4byte	.LVL40
 3757 021b 0100     		.2byte	0x1
 3758 021d 56       		.byte	0x56
 3759 021e 00000000 		.4byte	0
 3760 0222 00000000 		.4byte	0
 3761              	.LLST11:
 3762 0226 00000000 		.4byte	.LVL41
 3763 022a 84000000 		.4byte	.LVL42
 3764 022e 0100     		.2byte	0x1
 3765 0230 50       		.byte	0x50
 3766 0231 84000000 		.4byte	.LVL42
 3767 0235 CC000000 		.4byte	.LVL48
 3768 0239 0400     		.2byte	0x4
 3769 023b F3       		.byte	0xf3
 3770 023c 01       		.uleb128 0x1
 3771 023d 50       		.byte	0x50
 3772 023e 9F       		.byte	0x9f
 3773 023f CC000000 		.4byte	.LVL48
 3774 0243 E4000000 		.4byte	.LFE19
 3775 0247 0100     		.2byte	0x1
 3776 0249 50       		.byte	0x50
 3777 024a 00000000 		.4byte	0
 3778 024e 00000000 		.4byte	0
 3779              	.LLST12:
 3780 0252 08000000 		.4byte	.LVL55
 3781 0256 B2000000 		.4byte	.LVL59
 3782 025a 0100     		.2byte	0x1
 3783 025c 56       		.byte	0x56
 3784 025d 00000000 		.4byte	0
 3785 0261 00000000 		.4byte	0
 3786              	.LLST13:
 3787 0265 08000000 		.4byte	.LVL63
 3788 0269 CE000000 		.4byte	.LVL66
 3789 026d 0100     		.2byte	0x1
 3790 026f 56       		.byte	0x56
 3791 0270 00000000 		.4byte	0
 3792 0274 00000000 		.4byte	0
 3793              	.LLST14:
 3794 0278 00000000 		.4byte	.LVL67
 3795 027c 0A000000 		.4byte	.LVL69
 3796 0280 0100     		.2byte	0x1
 3797 0282 50       		.byte	0x50
 3798 0283 0A000000 		.4byte	.LVL69
 3799 0287 18000000 		.4byte	.LFE4
 3800 028b 0400     		.2byte	0x4
 3801 028d F3       		.byte	0xf3
 3802 028e 01       		.uleb128 0x1
 3803 028f 50       		.byte	0x50
 3804 0290 9F       		.byte	0x9f
ARM GAS  C:\Users\celua\AppData\Local\Temp\cc8imhxh.s 			page 104


 3805 0291 00000000 		.4byte	0
 3806 0295 00000000 		.4byte	0
 3807              	.LLST15:
 3808 0299 08000000 		.4byte	.LVL68
 3809 029d 10000000 		.4byte	.LVL70
 3810 02a1 0100     		.2byte	0x1
 3811 02a3 53       		.byte	0x53
 3812 02a4 10000000 		.4byte	.LVL70
 3813 02a8 18000000 		.4byte	.LFE4
 3814 02ac 0100     		.2byte	0x1
 3815 02ae 50       		.byte	0x50
 3816 02af 00000000 		.4byte	0
 3817 02b3 00000000 		.4byte	0
 3818              	.LLST16:
 3819 02b7 00000000 		.4byte	.LVL71
 3820 02bb 0C000000 		.4byte	.LVL73
 3821 02bf 0100     		.2byte	0x1
 3822 02c1 50       		.byte	0x50
 3823 02c2 0C000000 		.4byte	.LVL73
 3824 02c6 18000000 		.4byte	.LFE5
 3825 02ca 0400     		.2byte	0x4
 3826 02cc F3       		.byte	0xf3
 3827 02cd 01       		.uleb128 0x1
 3828 02ce 50       		.byte	0x50
 3829 02cf 9F       		.byte	0x9f
 3830 02d0 00000000 		.4byte	0
 3831 02d4 00000000 		.4byte	0
 3832              	.LLST17:
 3833 02d8 08000000 		.4byte	.LVL72
 3834 02dc 0E000000 		.4byte	.LVL74
 3835 02e0 0100     		.2byte	0x1
 3836 02e2 53       		.byte	0x53
 3837 02e3 0E000000 		.4byte	.LVL74
 3838 02e7 18000000 		.4byte	.LFE5
 3839 02eb 0100     		.2byte	0x1
 3840 02ed 50       		.byte	0x50
 3841 02ee 00000000 		.4byte	0
 3842 02f2 00000000 		.4byte	0
 3843              	.LLST18:
 3844 02f6 00000000 		.4byte	.LVL75
 3845 02fa 10000000 		.4byte	.LVL77
 3846 02fe 0100     		.2byte	0x1
 3847 0300 50       		.byte	0x50
 3848 0301 10000000 		.4byte	.LVL77
 3849 0305 24000000 		.4byte	.LVL81
 3850 0309 0100     		.2byte	0x1
 3851 030b 54       		.byte	0x54
 3852 030c 24000000 		.4byte	.LVL81
 3853 0310 74000000 		.4byte	.LFE6
 3854 0314 0600     		.2byte	0x6
 3855 0316 F3       		.byte	0xf3
 3856 0317 03       		.uleb128 0x3
 3857 0318 F5       		.byte	0xf5
 3858 0319 00       		.uleb128 0
 3859 031a 25       		.uleb128 0x25
 3860 031b 9F       		.byte	0x9f
 3861 031c 00000000 		.4byte	0
ARM GAS  C:\Users\celua\AppData\Local\Temp\cc8imhxh.s 			page 105


 3862 0320 00000000 		.4byte	0
 3863              	.LLST19:
 3864 0324 0A000000 		.4byte	.LVL76
 3865 0328 13000000 		.4byte	.LVL78-1
 3866 032c 0A00     		.2byte	0xa
 3867 032e 73       		.byte	0x73
 3868 032f 00       		.sleb128 0
 3869 0330 32       		.byte	0x32
 3870 0331 24       		.byte	0x24
 3871 0332 03       		.byte	0x3
 3872 0333 00000000 		.4byte	.LANCHOR0
 3873 0337 22       		.byte	0x22
 3874 0338 44000000 		.4byte	.LVL86
 3875 033c 56000000 		.4byte	.LVL88
 3876 0340 0100     		.2byte	0x1
 3877 0342 50       		.byte	0x50
 3878 0343 56000000 		.4byte	.LVL88
 3879 0347 58000000 		.4byte	.LVL89
 3880 034b 0700     		.2byte	0x7
 3881 034d 73       		.byte	0x73
 3882 034e 00       		.sleb128 0
 3883 034f 32       		.byte	0x32
 3884 0350 24       		.byte	0x24
 3885 0351 72       		.byte	0x72
 3886 0352 00       		.sleb128 0
 3887 0353 22       		.byte	0x22
 3888 0354 00000000 		.4byte	0
 3889 0358 00000000 		.4byte	0
 3890              	.LLST20:
 3891 035c 54000000 		.4byte	.LVL87
 3892 0360 58000000 		.4byte	.LVL89
 3893 0364 0200     		.2byte	0x2
 3894 0366 30       		.byte	0x30
 3895 0367 9F       		.byte	0x9f
 3896 0368 5A000000 		.4byte	.LVL90
 3897 036c 74000000 		.4byte	.LFE6
 3898 0370 0100     		.2byte	0x1
 3899 0372 50       		.byte	0x50
 3900 0373 00000000 		.4byte	0
 3901 0377 00000000 		.4byte	0
 3902              	.LLST21:
 3903 037b 1C000000 		.4byte	.LVL79
 3904 037f 21000000 		.4byte	.LVL80-1
 3905 0383 0100     		.2byte	0x1
 3906 0385 50       		.byte	0x50
 3907 0386 24000000 		.4byte	.LVL81
 3908 038a 27000000 		.4byte	.LVL82-1
 3909 038e 0100     		.2byte	0x1
 3910 0390 50       		.byte	0x50
 3911 0391 27000000 		.4byte	.LVL82-1
 3912 0395 3E000000 		.4byte	.LVL84
 3913 0399 0100     		.2byte	0x1
 3914 039b 54       		.byte	0x54
 3915 039c 3E000000 		.4byte	.LVL84
 3916 03a0 41000000 		.4byte	.LVL85-1
 3917 03a4 0100     		.2byte	0x1
 3918 03a6 50       		.byte	0x50
ARM GAS  C:\Users\celua\AppData\Local\Temp\cc8imhxh.s 			page 106


 3919 03a7 58000000 		.4byte	.LVL89
 3920 03ab 5C000000 		.4byte	.LVL91
 3921 03af 0100     		.2byte	0x1
 3922 03b1 54       		.byte	0x54
 3923 03b2 00000000 		.4byte	0
 3924 03b6 00000000 		.4byte	0
 3925              	.LLST22:
 3926 03ba 06000000 		.4byte	.LVL92
 3927 03be 14000000 		.4byte	.LVL94
 3928 03c2 0100     		.2byte	0x1
 3929 03c4 53       		.byte	0x53
 3930 03c5 00000000 		.4byte	0
 3931 03c9 00000000 		.4byte	0
 3932              	.LLST23:
 3933 03cd 0C000000 		.4byte	.LVL93
 3934 03d1 16000000 		.4byte	.LVL95
 3935 03d5 0100     		.2byte	0x1
 3936 03d7 50       		.byte	0x50
 3937 03d8 18000000 		.4byte	.LVL96
 3938 03dc 24000000 		.4byte	.LFE7
 3939 03e0 0100     		.2byte	0x1
 3940 03e2 50       		.byte	0x50
 3941 03e3 00000000 		.4byte	0
 3942 03e7 00000000 		.4byte	0
 3943              	.LLST24:
 3944 03eb 00000000 		.4byte	.LVL97
 3945 03ef 24000000 		.4byte	.LVL101
 3946 03f3 0100     		.2byte	0x1
 3947 03f5 50       		.byte	0x50
 3948 03f6 24000000 		.4byte	.LVL101
 3949 03fa 30000000 		.4byte	.LFE10
 3950 03fe 0400     		.2byte	0x4
 3951 0400 F3       		.byte	0xf3
 3952 0401 01       		.uleb128 0x1
 3953 0402 50       		.byte	0x50
 3954 0403 9F       		.byte	0x9f
 3955 0404 00000000 		.4byte	0
 3956 0408 00000000 		.4byte	0
 3957              	.LLST25:
 3958 040c 10000000 		.4byte	.LVL98
 3959 0410 12000000 		.4byte	.LVL99
 3960 0414 0100     		.2byte	0x1
 3961 0416 53       		.byte	0x53
 3962 0417 1A000000 		.4byte	.LVL100
 3963 041b 30000000 		.4byte	.LFE10
 3964 041f 0100     		.2byte	0x1
 3965 0421 53       		.byte	0x53
 3966 0422 00000000 		.4byte	0
 3967 0426 00000000 		.4byte	0
 3968              	.LLST26:
 3969 042a 08000000 		.4byte	.LVL102
 3970 042e 14000000 		.4byte	.LVL104
 3971 0432 0100     		.2byte	0x1
 3972 0434 53       		.byte	0x53
 3973 0435 18000000 		.4byte	.LVL105
 3974 0439 1E000000 		.4byte	.LVL106
 3975 043d 0100     		.2byte	0x1
ARM GAS  C:\Users\celua\AppData\Local\Temp\cc8imhxh.s 			page 107


 3976 043f 53       		.byte	0x53
 3977 0440 00000000 		.4byte	0
 3978 0444 00000000 		.4byte	0
 3979              	.LLST27:
 3980 0448 12000000 		.4byte	.LVL109
 3981 044c 14000000 		.4byte	.LVL110
 3982 0450 0100     		.2byte	0x1
 3983 0452 50       		.byte	0x50
 3984 0453 18000000 		.4byte	.LVL111
 3985 0457 20000000 		.4byte	.LVL112
 3986 045b 0100     		.2byte	0x1
 3987 045d 52       		.byte	0x52
 3988 045e 20000000 		.4byte	.LVL112
 3989 0462 50000000 		.4byte	.LFE12
 3990 0466 0100     		.2byte	0x1
 3991 0468 50       		.byte	0x50
 3992 0469 00000000 		.4byte	0
 3993 046d 00000000 		.4byte	0
 3994              	.LLST28:
 3995 0471 08000000 		.4byte	.LVL107
 3996 0475 0E000000 		.4byte	.LVL108
 3997 0479 0100     		.2byte	0x1
 3998 047b 53       		.byte	0x53
 3999 047c 14000000 		.4byte	.LVL110
 4000 0480 26000000 		.4byte	.LVL113
 4001 0484 0100     		.2byte	0x1
 4002 0486 53       		.byte	0x53
 4003 0487 00000000 		.4byte	0
 4004 048b 00000000 		.4byte	0
 4005              	.LLST29:
 4006 048f 10000000 		.4byte	.LVL116
 4007 0493 1A000000 		.4byte	.LVL117
 4008 0497 0700     		.2byte	0x7
 4009 0499 70       		.byte	0x70
 4010 049a 00       		.sleb128 0
 4011 049b 0A       		.byte	0xa
 4012 049c FFFF     		.2byte	0xffff
 4013 049e 1A       		.byte	0x1a
 4014 049f 9F       		.byte	0x9f
 4015 04a0 1A000000 		.4byte	.LVL117
 4016 04a4 1C000000 		.4byte	.LVL118
 4017 04a8 0100     		.2byte	0x1
 4018 04aa 50       		.byte	0x50
 4019 04ab 24000000 		.4byte	.LVL120
 4020 04af 2C000000 		.4byte	.LVL121
 4021 04b3 0700     		.2byte	0x7
 4022 04b5 70       		.byte	0x70
 4023 04b6 00       		.sleb128 0
 4024 04b7 0A       		.byte	0xa
 4025 04b8 FFFF     		.2byte	0xffff
 4026 04ba 1A       		.byte	0x1a
 4027 04bb 9F       		.byte	0x9f
 4028 04bc 2C000000 		.4byte	.LVL121
 4029 04c0 34000000 		.4byte	.LVL122
 4030 04c4 0100     		.2byte	0x1
 4031 04c6 53       		.byte	0x53
 4032 04c7 34000000 		.4byte	.LVL122
ARM GAS  C:\Users\celua\AppData\Local\Temp\cc8imhxh.s 			page 108


 4033 04cb 36000000 		.4byte	.LVL123
 4034 04cf 0100     		.2byte	0x1
 4035 04d1 50       		.byte	0x50
 4036 04d2 3C000000 		.4byte	.LVL125
 4037 04d6 44000000 		.4byte	.LVL126
 4038 04da 0100     		.2byte	0x1
 4039 04dc 53       		.byte	0x53
 4040 04dd 44000000 		.4byte	.LVL126
 4041 04e1 6C000000 		.4byte	.LFE13
 4042 04e5 0100     		.2byte	0x1
 4043 04e7 50       		.byte	0x50
 4044 04e8 00000000 		.4byte	0
 4045 04ec 00000000 		.4byte	0
 4046              	.LLST30:
 4047 04f0 08000000 		.4byte	.LVL114
 4048 04f4 0E000000 		.4byte	.LVL115
 4049 04f8 0100     		.2byte	0x1
 4050 04fa 53       		.byte	0x53
 4051 04fb 1C000000 		.4byte	.LVL118
 4052 04ff 22000000 		.4byte	.LVL119
 4053 0503 0100     		.2byte	0x1
 4054 0505 53       		.byte	0x53
 4055 0506 36000000 		.4byte	.LVL123
 4056 050a 38000000 		.4byte	.LVL124
 4057 050e 0100     		.2byte	0x1
 4058 0510 53       		.byte	0x53
 4059 0511 00000000 		.4byte	0
 4060 0515 00000000 		.4byte	0
 4061              	.LLST31:
 4062 0519 00000000 		.4byte	.LVL129
 4063 051d 06000000 		.4byte	.LVL130
 4064 0521 0100     		.2byte	0x1
 4065 0523 50       		.byte	0x50
 4066 0524 06000000 		.4byte	.LVL130
 4067 0528 0E000000 		.4byte	.LVL131
 4068 052c 0100     		.2byte	0x1
 4069 052e 50       		.byte	0x50
 4070 052f 00000000 		.4byte	0
 4071 0533 00000000 		.4byte	0
 4072              	.LLST32:
 4073 0537 00000000 		.4byte	.LVL133
 4074 053b 06000000 		.4byte	.LVL134
 4075 053f 0100     		.2byte	0x1
 4076 0541 50       		.byte	0x50
 4077 0542 06000000 		.4byte	.LVL134
 4078 0546 08000000 		.4byte	.LVL135
 4079 054a 0600     		.2byte	0x6
 4080 054c 70       		.byte	0x70
 4081 054d 00       		.sleb128 0
 4082 054e 73       		.byte	0x73
 4083 054f 00       		.sleb128 0
 4084 0550 1C       		.byte	0x1c
 4085 0551 9F       		.byte	0x9f
 4086 0552 08000000 		.4byte	.LVL135
 4087 0556 0B000000 		.4byte	.LVL136-1
 4088 055a 0100     		.2byte	0x1
 4089 055c 50       		.byte	0x50
ARM GAS  C:\Users\celua\AppData\Local\Temp\cc8imhxh.s 			page 109


 4090 055d 00000000 		.4byte	0
 4091 0561 00000000 		.4byte	0
 4092              	.LLST33:
 4093 0565 00000000 		.4byte	.LVL139
 4094 0569 4E000000 		.4byte	.LVL146
 4095 056d 0100     		.2byte	0x1
 4096 056f 50       		.byte	0x50
 4097 0570 4E000000 		.4byte	.LVL146
 4098 0574 74000000 		.4byte	.LFE18
 4099 0578 0400     		.2byte	0x4
 4100 057a F3       		.byte	0xf3
 4101 057b 01       		.uleb128 0x1
 4102 057c 50       		.byte	0x50
 4103 057d 9F       		.byte	0x9f
 4104 057e 00000000 		.4byte	0
 4105 0582 00000000 		.4byte	0
 4106              	.LLST34:
 4107 0586 5E000000 		.4byte	.LVL147
 4108 058a 60000000 		.4byte	.LVL148
 4109 058e 0600     		.2byte	0x6
 4110 0590 73       		.byte	0x73
 4111 0591 00       		.sleb128 0
 4112 0592 70       		.byte	0x70
 4113 0593 00       		.sleb128 0
 4114 0594 1C       		.byte	0x1c
 4115 0595 9F       		.byte	0x9f
 4116 0596 60000000 		.4byte	.LVL148
 4117 059a 74000000 		.4byte	.LFE18
 4118 059e 0100     		.2byte	0x1
 4119 05a0 50       		.byte	0x50
 4120 05a1 00000000 		.4byte	0
 4121 05a5 00000000 		.4byte	0
 4122              	.LLST35:
 4123 05a9 36000000 		.4byte	.LVL141
 4124 05ad 3C000000 		.4byte	.LVL142
 4125 05b1 0600     		.2byte	0x6
 4126 05b3 0C       		.byte	0xc
 4127 05b4 40420F00 		.4byte	0xf4240
 4128 05b8 9F       		.byte	0x9f
 4129 05b9 42000000 		.4byte	.LVL143
 4130 05bd 62000000 		.4byte	.LVL149
 4131 05c1 0100     		.2byte	0x1
 4132 05c3 54       		.byte	0x54
 4133 05c4 00000000 		.4byte	0
 4134 05c8 00000000 		.4byte	0
 4135              	.LLST36:
 4136 05cc 36000000 		.4byte	.LVL141
 4137 05d0 3C000000 		.4byte	.LVL142
 4138 05d4 0200     		.2byte	0x2
 4139 05d6 31       		.byte	0x31
 4140 05d7 9F       		.byte	0x9f
 4141 05d8 42000000 		.4byte	.LVL143
 4142 05dc 74000000 		.4byte	.LFE18
 4143 05e0 0100     		.2byte	0x1
 4144 05e2 51       		.byte	0x51
 4145 05e3 00000000 		.4byte	0
 4146 05e7 00000000 		.4byte	0
ARM GAS  C:\Users\celua\AppData\Local\Temp\cc8imhxh.s 			page 110


 4147              	.LLST37:
 4148 05eb 24000000 		.4byte	.LVL140
 4149 05ef 44000000 		.4byte	.LVL144
 4150 05f3 0100     		.2byte	0x1
 4151 05f5 53       		.byte	0x53
 4152 05f6 00000000 		.4byte	0
 4153 05fa 00000000 		.4byte	0
 4154              	.LLST38:
 4155 05fe 00000000 		.4byte	.LVL150
 4156 0602 1D000000 		.4byte	.LVL151-1
 4157 0606 0100     		.2byte	0x1
 4158 0608 50       		.byte	0x50
 4159 0609 1D000000 		.4byte	.LVL151-1
 4160 060d 48000000 		.4byte	.LVL155
 4161 0611 0400     		.2byte	0x4
 4162 0613 F3       		.byte	0xf3
 4163 0614 01       		.uleb128 0x1
 4164 0615 50       		.byte	0x50
 4165 0616 9F       		.byte	0x9f
 4166 0617 48000000 		.4byte	.LVL155
 4167 061b 4A000000 		.4byte	.LVL156
 4168 061f 0100     		.2byte	0x1
 4169 0621 50       		.byte	0x50
 4170 0622 4A000000 		.4byte	.LVL156
 4171 0626 60000000 		.4byte	.LFE20
 4172 062a 0400     		.2byte	0x4
 4173 062c F3       		.byte	0xf3
 4174 062d 01       		.uleb128 0x1
 4175 062e 50       		.byte	0x50
 4176 062f 9F       		.byte	0x9f
 4177 0630 00000000 		.4byte	0
 4178 0634 00000000 		.4byte	0
 4179              	.LLST39:
 4180 0638 00000000 		.4byte	.LVL150
 4181 063c 1D000000 		.4byte	.LVL151-1
 4182 0640 0100     		.2byte	0x1
 4183 0642 51       		.byte	0x51
 4184 0643 1D000000 		.4byte	.LVL151-1
 4185 0647 48000000 		.4byte	.LVL155
 4186 064b 0400     		.2byte	0x4
 4187 064d F3       		.byte	0xf3
 4188 064e 01       		.uleb128 0x1
 4189 064f 51       		.byte	0x51
 4190 0650 9F       		.byte	0x9f
 4191 0651 48000000 		.4byte	.LVL155
 4192 0655 4D000000 		.4byte	.LVL157-1
 4193 0659 0100     		.2byte	0x1
 4194 065b 51       		.byte	0x51
 4195 065c 4D000000 		.4byte	.LVL157-1
 4196 0660 60000000 		.4byte	.LFE20
 4197 0664 0400     		.2byte	0x4
 4198 0666 F3       		.byte	0xf3
 4199 0667 01       		.uleb128 0x1
 4200 0668 51       		.byte	0x51
 4201 0669 9F       		.byte	0x9f
 4202 066a 00000000 		.4byte	0
 4203 066e 00000000 		.4byte	0
ARM GAS  C:\Users\celua\AppData\Local\Temp\cc8imhxh.s 			page 111


 4204              	.LLST40:
 4205 0672 1C000000 		.4byte	.LVL161
 4206 0676 24000000 		.4byte	.LVL163
 4207 067a 0100     		.2byte	0x1
 4208 067c 54       		.byte	0x54
 4209 067d 00000000 		.4byte	0
 4210 0681 00000000 		.4byte	0
 4211              	.LLST41:
 4212 0685 1C000000 		.4byte	.LVL167
 4213 0689 24000000 		.4byte	.LVL169
 4214 068d 0100     		.2byte	0x1
 4215 068f 54       		.byte	0x54
 4216 0690 00000000 		.4byte	0
 4217 0694 00000000 		.4byte	0
 4218              	.LLST42:
 4219 0698 1C000000 		.4byte	.LVL173
 4220 069c 1F000000 		.4byte	.LVL174-1
 4221 06a0 0100     		.2byte	0x1
 4222 06a2 50       		.byte	0x50
 4223 06a3 1F000000 		.4byte	.LVL174-1
 4224 06a7 24000000 		.4byte	.LVL175
 4225 06ab 0100     		.2byte	0x1
 4226 06ad 54       		.byte	0x54
 4227 06ae 24000000 		.4byte	.LVL175
 4228 06b2 28000000 		.4byte	.LFE25
 4229 06b6 0100     		.2byte	0x1
 4230 06b8 50       		.byte	0x50
 4231 06b9 00000000 		.4byte	0
 4232 06bd 00000000 		.4byte	0
 4233              		.section	.debug_aranges,"",%progbits
 4234 0000 E4000000 		.4byte	0xe4
 4235 0004 0200     		.2byte	0x2
 4236 0006 00000000 		.4byte	.Ldebug_info0
 4237 000a 04       		.byte	0x4
 4238 000b 00       		.byte	0
 4239 000c 0000     		.2byte	0
 4240 000e 0000     		.2byte	0
 4241 0010 00000000 		.4byte	.LFB21
 4242 0014 DC000000 		.4byte	.LFE21-.LFB21
 4243 0018 00000000 		.4byte	.LFB22
 4244 001c 4C000000 		.4byte	.LFE22-.LFB22
 4245 0020 00000000 		.4byte	.LFB19
 4246 0024 E4000000 		.4byte	.LFE19-.LFB19
 4247 0028 00000000 		.4byte	.LFB0
 4248 002c C4000000 		.4byte	.LFE0-.LFB0
 4249 0030 00000000 		.4byte	.LFB1
 4250 0034 D8000000 		.4byte	.LFE1-.LFB1
 4251 0038 00000000 		.4byte	.LFB2
 4252 003c 28000000 		.4byte	.LFE2-.LFB2
 4253 0040 00000000 		.4byte	.LFB3
 4254 0044 E4000000 		.4byte	.LFE3-.LFB3
 4255 0048 00000000 		.4byte	.LFB4
 4256 004c 18000000 		.4byte	.LFE4-.LFB4
 4257 0050 00000000 		.4byte	.LFB5
 4258 0054 18000000 		.4byte	.LFE5-.LFB5
 4259 0058 00000000 		.4byte	.LFB6
 4260 005c 74000000 		.4byte	.LFE6-.LFB6
ARM GAS  C:\Users\celua\AppData\Local\Temp\cc8imhxh.s 			page 112


 4261 0060 00000000 		.4byte	.LFB7
 4262 0064 24000000 		.4byte	.LFE7-.LFB7
 4263 0068 00000000 		.4byte	.LFB8
 4264 006c 10000000 		.4byte	.LFE8-.LFB8
 4265 0070 00000000 		.4byte	.LFB9
 4266 0074 10000000 		.4byte	.LFE9-.LFB9
 4267 0078 00000000 		.4byte	.LFB10
 4268 007c 30000000 		.4byte	.LFE10-.LFB10
 4269 0080 00000000 		.4byte	.LFB11
 4270 0084 48000000 		.4byte	.LFE11-.LFB11
 4271 0088 00000000 		.4byte	.LFB12
 4272 008c 50000000 		.4byte	.LFE12-.LFB12
 4273 0090 00000000 		.4byte	.LFB13
 4274 0094 6C000000 		.4byte	.LFE13-.LFB13
 4275 0098 00000000 		.4byte	.LFB14
 4276 009c 0C000000 		.4byte	.LFE14-.LFB14
 4277 00a0 00000000 		.4byte	.LFB15
 4278 00a4 0C000000 		.4byte	.LFE15-.LFB15
 4279 00a8 00000000 		.4byte	.LFB16
 4280 00ac 24000000 		.4byte	.LFE16-.LFB16
 4281 00b0 00000000 		.4byte	.LFB17
 4282 00b4 28000000 		.4byte	.LFE17-.LFB17
 4283 00b8 00000000 		.4byte	.LFB18
 4284 00bc 74000000 		.4byte	.LFE18-.LFB18
 4285 00c0 00000000 		.4byte	.LFB20
 4286 00c4 60000000 		.4byte	.LFE20-.LFB20
 4287 00c8 00000000 		.4byte	.LFB23
 4288 00cc 28000000 		.4byte	.LFE23-.LFB23
 4289 00d0 00000000 		.4byte	.LFB24
 4290 00d4 28000000 		.4byte	.LFE24-.LFB24
 4291 00d8 00000000 		.4byte	.LFB25
 4292 00dc 28000000 		.4byte	.LFE25-.LFB25
 4293 00e0 00000000 		.4byte	0
 4294 00e4 00000000 		.4byte	0
 4295              		.section	.debug_ranges,"",%progbits
 4296              	.Ldebug_ranges0:
 4297 0000 00000000 		.4byte	.LFB21
 4298 0004 DC000000 		.4byte	.LFE21
 4299 0008 00000000 		.4byte	.LFB22
 4300 000c 4C000000 		.4byte	.LFE22
 4301 0010 00000000 		.4byte	.LFB19
 4302 0014 E4000000 		.4byte	.LFE19
 4303 0018 00000000 		.4byte	.LFB0
 4304 001c C4000000 		.4byte	.LFE0
 4305 0020 00000000 		.4byte	.LFB1
 4306 0024 D8000000 		.4byte	.LFE1
 4307 0028 00000000 		.4byte	.LFB2
 4308 002c 28000000 		.4byte	.LFE2
 4309 0030 00000000 		.4byte	.LFB3
 4310 0034 E4000000 		.4byte	.LFE3
 4311 0038 00000000 		.4byte	.LFB4
 4312 003c 18000000 		.4byte	.LFE4
 4313 0040 00000000 		.4byte	.LFB5
 4314 0044 18000000 		.4byte	.LFE5
 4315 0048 00000000 		.4byte	.LFB6
 4316 004c 74000000 		.4byte	.LFE6
 4317 0050 00000000 		.4byte	.LFB7
ARM GAS  C:\Users\celua\AppData\Local\Temp\cc8imhxh.s 			page 113


 4318 0054 24000000 		.4byte	.LFE7
 4319 0058 00000000 		.4byte	.LFB8
 4320 005c 10000000 		.4byte	.LFE8
 4321 0060 00000000 		.4byte	.LFB9
 4322 0064 10000000 		.4byte	.LFE9
 4323 0068 00000000 		.4byte	.LFB10
 4324 006c 30000000 		.4byte	.LFE10
 4325 0070 00000000 		.4byte	.LFB11
 4326 0074 48000000 		.4byte	.LFE11
 4327 0078 00000000 		.4byte	.LFB12
 4328 007c 50000000 		.4byte	.LFE12
 4329 0080 00000000 		.4byte	.LFB13
 4330 0084 6C000000 		.4byte	.LFE13
 4331 0088 00000000 		.4byte	.LFB14
 4332 008c 0C000000 		.4byte	.LFE14
 4333 0090 00000000 		.4byte	.LFB15
 4334 0094 0C000000 		.4byte	.LFE15
 4335 0098 00000000 		.4byte	.LFB16
 4336 009c 24000000 		.4byte	.LFE16
 4337 00a0 00000000 		.4byte	.LFB17
 4338 00a4 28000000 		.4byte	.LFE17
 4339 00a8 00000000 		.4byte	.LFB18
 4340 00ac 74000000 		.4byte	.LFE18
 4341 00b0 00000000 		.4byte	.LFB20
 4342 00b4 60000000 		.4byte	.LFE20
 4343 00b8 00000000 		.4byte	.LFB23
 4344 00bc 28000000 		.4byte	.LFE23
 4345 00c0 00000000 		.4byte	.LFB24
 4346 00c4 28000000 		.4byte	.LFE24
 4347 00c8 00000000 		.4byte	.LFB25
 4348 00cc 28000000 		.4byte	.LFE25
 4349 00d0 00000000 		.4byte	0
 4350 00d4 00000000 		.4byte	0
 4351              		.section	.debug_line,"",%progbits
 4352              	.Ldebug_line0:
 4353 0000 5F030000 		.section	.debug_str,"MS",%progbits,1
 4353      02008700 
 4353      00000201 
 4353      FB0E0D00 
 4353      01010101 
 4354              	.LASF11:
 4355 0000 75696E74 		.ascii	"uint16\000"
 4355      313600
 4356              	.LASF67:
 4357 0007 61646347 		.ascii	"adcGain\000"
 4357      61696E00 
 4358              	.LASF93:
 4359 000f 43794578 		.ascii	"CyExitCriticalSection\000"
 4359      69744372 
 4359      69746963 
 4359      616C5365 
 4359      6374696F 
 4360              	.LASF27:
 4361 0025 696E7075 		.ascii	"inputRange\000"
 4361      7452616E 
 4361      676500
 4362              	.LASF71:
ARM GAS  C:\Users\celua\AppData\Local\Temp\cc8imhxh.s 			page 114


 4363 0030 4144435F 		.ascii	"ADC_CountsTo_Volts\000"
 4363      436F756E 
 4363      7473546F 
 4363      5F566F6C 
 4363      747300
 4364              	.LASF85:
 4365 0043 4144435F 		.ascii	"ADC_stopConversion\000"
 4365      73746F70 
 4365      436F6E76 
 4365      65727369 
 4365      6F6E00
 4366              	.LASF86:
 4367 0056 4144435F 		.ascii	"ADC_started\000"
 4367      73746172 
 4367      74656400 
 4368              	.LASF80:
 4369 0062 4144435F 		.ascii	"ADC_Read16\000"
 4369      52656164 
 4369      313600
 4370              	.LASF24:
 4371 006d 67636F72 		.ascii	"gcor\000"
 4371      00
 4372              	.LASF41:
 4373 0072 4144435F 		.ascii	"ADC_Init\000"
 4373      496E6974 
 4373      00
 4374              	.LASF8:
 4375 007b 6C6F6E67 		.ascii	"long long unsigned int\000"
 4375      206C6F6E 
 4375      6720756E 
 4375      7369676E 
 4375      65642069 
 4376              	.LASF102:
 4377 0092 47656E65 		.ascii	"Generated_Source\\PSoC5\\ADC.c\000"
 4377      72617465 
 4377      645F536F 
 4377      75726365 
 4377      5C50536F 
 4378              	.LASF87:
 4379 00af 4144435F 		.ascii	"ADC_Config\000"
 4379      436F6E66 
 4379      696700
 4380              	.LASF56:
 4381 00ba 4144435F 		.ascii	"ADC_StartConvert\000"
 4381      53746172 
 4381      74436F6E 
 4381      76657274 
 4381      00
 4382              	.LASF29:
 4383 00cb 69646561 		.ascii	"idealOddDecGain\000"
 4383      6C4F6464 
 4383      44656347 
 4383      61696E00 
 4384              	.LASF7:
 4385 00db 6C6F6E67 		.ascii	"long long int\000"
 4385      206C6F6E 
 4385      6720696E 
ARM GAS  C:\Users\celua\AppData\Local\Temp\cc8imhxh.s 			page 115


 4385      7400
 4386              	.LASF1:
 4387 00e9 7369676E 		.ascii	"signed char\000"
 4387      65642063 
 4387      68617200 
 4388              	.LASF51:
 4389 00f5 73746174 		.ascii	"status\000"
 4389      757300
 4390              	.LASF45:
 4391 00fc 4144435F 		.ascii	"ADC_SetBufferGain\000"
 4391      53657442 
 4391      75666665 
 4391      72476169 
 4391      6E00
 4392              	.LASF15:
 4393 010e 696E7433 		.ascii	"int32\000"
 4393      3200
 4394              	.LASF43:
 4395 0114 4144435F 		.ascii	"ADC_Start\000"
 4395      53746172 
 4395      7400
 4396              	.LASF84:
 4397 011e 4144435F 		.ascii	"ADC_convDone\000"
 4397      636F6E76 
 4397      446F6E65 
 4397      00
 4398              	.LASF5:
 4399 012b 6C6F6E67 		.ascii	"long int\000"
 4399      20696E74 
 4399      00
 4400              	.LASF73:
 4401 0134 4144435F 		.ascii	"ADC_CountsTo_uVolts\000"
 4401      436F756E 
 4401      7473546F 
 4401      5F75566F 
 4401      6C747300 
 4402              	.LASF20:
 4403 0148 72656731 		.ascii	"reg16\000"
 4403      3600
 4404              	.LASF10:
 4405 014e 75696E74 		.ascii	"uint8\000"
 4405      3800
 4406              	.LASF92:
 4407 0154 43794465 		.ascii	"CyDelayUs\000"
 4407      6C617955 
 4407      7300
 4408              	.LASF17:
 4409 015e 646F7562 		.ascii	"double\000"
 4409      6C6500
 4410              	.LASF63:
 4411 0165 4144435F 		.ascii	"ADC_GetResult32\000"
 4411      47657452 
 4411      6573756C 
 4411      74333200 
 4412              	.LASF72:
 4413 0175 566F6C74 		.ascii	"Volts\000"
 4413      7300
ARM GAS  C:\Users\celua\AppData\Local\Temp\cc8imhxh.s 			page 116


 4414              	.LASF12:
 4415 017b 75696E74 		.ascii	"uint32\000"
 4415      333200
 4416              	.LASF97:
 4417 0182 4379496E 		.ascii	"CyIntSetVector\000"
 4417      74536574 
 4417      56656374 
 4417      6F7200
 4418              	.LASF83:
 4419 0191 4144435F 		.ascii	"ADC_initVar\000"
 4419      696E6974 
 4419      56617200 
 4420              	.LASF37:
 4421 019d 4144435F 		.ascii	"ADC_SetDSMRef0Reg\000"
 4421      53657444 
 4421      534D5265 
 4421      66305265 
 4421      6700
 4422              	.LASF38:
 4423 01af 76616C75 		.ascii	"value\000"
 4423      6500
 4424              	.LASF59:
 4425 01b5 7265744D 		.ascii	"retMode\000"
 4425      6F646500 
 4426              	.LASF96:
 4427 01bd 4144435F 		.ascii	"ADC_theACLK_SetDividerRegister\000"
 4427      74686541 
 4427      434C4B5F 
 4427      53657444 
 4427      69766964 
 4428              	.LASF9:
 4429 01dc 756E7369 		.ascii	"unsigned int\000"
 4429      676E6564 
 4429      20696E74 
 4429      00
 4430              	.LASF16:
 4431 01e9 666C6F61 		.ascii	"float32\000"
 4431      74333200 
 4432              	.LASF74:
 4433 01f1 75566F6C 		.ascii	"uVolts\000"
 4433      747300
 4434              	.LASF6:
 4435 01f8 6C6F6E67 		.ascii	"long unsigned int\000"
 4435      20756E73 
 4435      69676E65 
 4435      6420696E 
 4435      7400
 4436              	.LASF91:
 4437 020a 4379456E 		.ascii	"CyEnterCriticalSection\000"
 4437      74657243 
 4437      72697469 
 4437      63616C53 
 4437      65637469 
 4438              	.LASF26:
 4439 0221 4144435F 		.ascii	"ADC_GCOR_STRUCT\000"
 4439      47434F52 
 4439      5F535452 
ARM GAS  C:\Users\celua\AppData\Local\Temp\cc8imhxh.s 			page 117


 4439      55435400 
 4440              	.LASF4:
 4441 0231 73686F72 		.ascii	"short unsigned int\000"
 4441      7420756E 
 4441      7369676E 
 4441      65642069 
 4441      6E7400
 4442              	.LASF13:
 4443 0244 696E7438 		.ascii	"int8\000"
 4443      00
 4444              	.LASF57:
 4445 0249 4144435F 		.ascii	"ADC_StopConvert\000"
 4445      53746F70 
 4445      436F6E76 
 4445      65727400 
 4446              	.LASF34:
 4447 0259 67636F72 		.ascii	"gcorValue\000"
 4447      56616C75 
 4447      6500
 4448              	.LASF36:
 4449 0263 4144435F 		.ascii	"ADC_GainCompensation\000"
 4449      4761696E 
 4449      436F6D70 
 4449      656E7361 
 4449      74696F6E 
 4450              	.LASF32:
 4451 0278 666C6173 		.ascii	"flash\000"
 4451      6800
 4452              	.LASF21:
 4453 027e 72656733 		.ascii	"reg32\000"
 4453      3200
 4454              	.LASF103:
 4455 0284 443A5C70 		.ascii	"D:\\psoc codes\\ADC+UART\\ADC+UART.cydsn\000"
 4455      736F6320 
 4455      636F6465 
 4455      735C4144 
 4455      432B5541 
 4456              	.LASF23:
 4457 02aa 73697A65 		.ascii	"sizetype\000"
 4457      74797065 
 4457      00
 4458              	.LASF22:
 4459 02b3 6C6F6E67 		.ascii	"long double\000"
 4459      20646F75 
 4459      626C6500 
 4460              	.LASF53:
 4461 02bf 4144435F 		.ascii	"ADC_SetGCOR\000"
 4461      53657447 
 4461      434F5200 
 4462              	.LASF58:
 4463 02cb 4144435F 		.ascii	"ADC_IsEndConversion\000"
 4463      4973456E 
 4463      64436F6E 
 4463      76657273 
 4463      696F6E00 
 4464              	.LASF82:
 4465 02df 4144435F 		.ascii	"ADC_gcor\000"
ARM GAS  C:\Users\celua\AppData\Local\Temp\cc8imhxh.s 			page 118


 4465      67636F72 
 4465      00
 4466              	.LASF40:
 4467 02e8 4144435F 		.ascii	"ADC_InitConfig\000"
 4467      496E6974 
 4467      436F6E66 
 4467      696700
 4468              	.LASF60:
 4469 02f7 4144435F 		.ascii	"ADC_GetResult8\000"
 4469      47657452 
 4469      6573756C 
 4469      743800
 4470              	.LASF99:
 4471 0306 4144435F 		.ascii	"ADC_theACLK_SetModeRegister\000"
 4471      74686541 
 4471      434C4B5F 
 4471      5365744D 
 4471      6F646552 
 4472              	.LASF49:
 4473 0322 636F6865 		.ascii	"coherency\000"
 4473      72656E63 
 4473      7900
 4474              	.LASF100:
 4475 032c 4379496E 		.ascii	"CyIntSetPriority\000"
 4475      74536574 
 4475      5072696F 
 4475      72697479 
 4475      00
 4476              	.LASF46:
 4477 033d 6761696E 		.ascii	"gain\000"
 4477      00
 4478              	.LASF66:
 4479 0342 4144435F 		.ascii	"ADC_SetGain\000"
 4479      53657447 
 4479      61696E00 
 4480              	.LASF0:
 4481 034e 666C6F61 		.ascii	"float\000"
 4481      7400
 4482              	.LASF68:
 4483 0354 4144435F 		.ascii	"ADC_CountsTo_mVolts\000"
 4483      436F756E 
 4483      7473546F 
 4483      5F6D566F 
 4483      6C747300 
 4484              	.LASF19:
 4485 0368 72656738 		.ascii	"reg8\000"
 4485      00
 4486              	.LASF28:
 4487 036d 69646561 		.ascii	"idealDecGain\000"
 4487      6C446563 
 4487      4761696E 
 4487      00
 4488              	.LASF33:
 4489 037a 6E6F726D 		.ascii	"normalised\000"
 4489      616C6973 
 4489      656400
 4490              	.LASF90:
ARM GAS  C:\Users\celua\AppData\Local\Temp\cc8imhxh.s 			page 119


 4491 0385 43794861 		.ascii	"CyHalt\000"
 4491      6C7400
 4492              	.LASF2:
 4493 038c 756E7369 		.ascii	"unsigned char\000"
 4493      676E6564 
 4493      20636861 
 4493      7200
 4494              	.LASF77:
 4495 039a 4144435F 		.ascii	"ADC_SelectConfiguration\000"
 4495      53656C65 
 4495      6374436F 
 4495      6E666967 
 4495      75726174 
 4496              	.LASF3:
 4497 03b2 73686F72 		.ascii	"short int\000"
 4497      7420696E 
 4497      7400
 4498              	.LASF44:
 4499 03bc 4144435F 		.ascii	"ADC_Stop\000"
 4499      53746F70 
 4499      00
 4500              	.LASF35:
 4501 03c5 67636F72 		.ascii	"gcorTmp\000"
 4501      546D7000 
 4502              	.LASF98:
 4503 03cd 4144435F 		.ascii	"ADC_Ext_CP_Clk_SetModeRegister\000"
 4503      4578745F 
 4503      43505F43 
 4503      6C6B5F53 
 4503      65744D6F 
 4504              	.LASF70:
 4505 03ec 6D566F6C 		.ascii	"mVolts\000"
 4505      747300
 4506              	.LASF101:
 4507 03f3 474E5520 		.ascii	"GNU C11 5.4.1 20160609 (release) [ARM/embedded-5-br"
 4507      43313120 
 4507      352E342E 
 4507      31203230 
 4507      31363036 
 4508 0426 616E6368 		.ascii	"anch revision 237715] -mcpu=cortex-m3 -mthumb -g -O"
 4508      20726576 
 4508      6973696F 
 4508      6E203233 
 4508      37373135 
 4509 0459 67202D66 		.ascii	"g -ffunction-sections -ffat-lto-objects\000"
 4509      66756E63 
 4509      74696F6E 
 4509      2D736563 
 4509      74696F6E 
 4510              	.LASF94:
 4511 0481 4144435F 		.ascii	"ADC_AMux_Select\000"
 4511      414D7578 
 4511      5F53656C 
 4511      65637400 
 4512              	.LASF30:
 4513 0491 7265736F 		.ascii	"resolution\000"
 4513      6C757469 
ARM GAS  C:\Users\celua\AppData\Local\Temp\cc8imhxh.s 			page 120


 4513      6F6E00
 4514              	.LASF88:
 4515 049c 4144435F 		.ascii	"ADC_Offset\000"
 4515      4F666673 
 4515      657400
 4516              	.LASF75:
 4517 04a7 636F6566 		.ascii	"coefA\000"
 4517      4100
 4518              	.LASF76:
 4519 04ad 636F6566 		.ascii	"coefB\000"
 4519      4200
 4520              	.LASF95:
 4521 04b3 4144435F 		.ascii	"ADC_Ext_CP_Clk_SetDividerRegister\000"
 4521      4578745F 
 4521      43505F43 
 4521      6C6B5F53 
 4521      65744469 
 4522              	.LASF18:
 4523 04d5 63686172 		.ascii	"char\000"
 4523      00
 4524              	.LASF55:
 4525 04da 6756616C 		.ascii	"gValue\000"
 4525      756500
 4526              	.LASF31:
 4527 04e1 636F6E66 		.ascii	"config\000"
 4527      696700
 4528              	.LASF25:
 4529 04e8 6776616C 		.ascii	"gval\000"
 4529      00
 4530              	.LASF78:
 4531 04ed 72657374 		.ascii	"restart\000"
 4531      61727400 
 4532              	.LASF52:
 4533 04f5 746D7056 		.ascii	"tmpValue\000"
 4533      616C7565 
 4533      00
 4534              	.LASF65:
 4535 04fe 6F666673 		.ascii	"offset\000"
 4535      657400
 4536              	.LASF48:
 4537 0505 4144435F 		.ascii	"ADC_SetCoherency\000"
 4537      53657443 
 4537      6F686572 
 4537      656E6379 
 4537      00
 4538              	.LASF79:
 4539 0516 4144435F 		.ascii	"ADC_Read8\000"
 4539      52656164 
 4539      3800
 4540              	.LASF69:
 4541 0520 61646343 		.ascii	"adcCounts\000"
 4541      6F756E74 
 4541      7300
 4542              	.LASF81:
 4543 052a 4144435F 		.ascii	"ADC_Read32\000"
 4543      52656164 
 4543      333200
ARM GAS  C:\Users\celua\AppData\Local\Temp\cc8imhxh.s 			page 121


 4544              	.LASF39:
 4545 0535 656E6162 		.ascii	"enableInterrupts\000"
 4545      6C65496E 
 4545      74657272 
 4545      75707473 
 4545      00
 4546              	.LASF42:
 4547 0546 4144435F 		.ascii	"ADC_Enable\000"
 4547      456E6162 
 4547      6C6500
 4548              	.LASF54:
 4549 0551 4144435F 		.ascii	"ADC_ReadGCOR\000"
 4549      52656164 
 4549      47434F52 
 4549      00
 4550              	.LASF50:
 4551 055e 6761696E 		.ascii	"gainAdjust\000"
 4551      41646A75 
 4551      737400
 4552              	.LASF14:
 4553 0569 696E7431 		.ascii	"int16\000"
 4553      3600
 4554              	.LASF64:
 4555 056f 4144435F 		.ascii	"ADC_SetOffset\000"
 4555      5365744F 
 4555      66667365 
 4555      7400
 4556              	.LASF89:
 4557 057d 4144435F 		.ascii	"ADC_CountsPerVolt\000"
 4557      436F756E 
 4557      74735065 
 4557      72566F6C 
 4557      7400
 4558              	.LASF47:
 4559 058f 746D7052 		.ascii	"tmpReg\000"
 4559      656700
 4560              	.LASF61:
 4561 0596 72657375 		.ascii	"result\000"
 4561      6C7400
 4562              	.LASF62:
 4563 059d 4144435F 		.ascii	"ADC_GetResult16\000"
 4563      47657452 
 4563      6573756C 
 4563      74313600 
 4564              		.ident	"GCC: (GNU Tools for ARM Embedded Processors) 5.4.1 20160609 (release) [ARM/embedded-5-bran
