ARM GAS  C:\Users\celua\AppData\Local\Temp\ccnpXE83.s 			page 1


   1              		.syntax unified
   2              		.cpu cortex-m3
   3              		.fpu softvfp
   4              		.eabi_attribute 20, 1
   5              		.eabi_attribute 21, 1
   6              		.eabi_attribute 23, 3
   7              		.eabi_attribute 24, 1
   8              		.eabi_attribute 25, 1
   9              		.eabi_attribute 26, 1
  10              		.eabi_attribute 30, 1
  11              		.eabi_attribute 34, 1
  12              		.eabi_attribute 18, 4
  13              		.thumb
  14              		.syntax unified
  15              		.file	"main.c"
  16              		.text
  17              	.Ltext0:
  18              		.cfi_sections	.debug_frame
  19              		.section	.text.Enviar,"ax",%progbits
  20              		.align	2
  21              		.global	Enviar
  22              		.thumb
  23              		.thumb_func
  24              		.type	Enviar, %function
  25              	Enviar:
  26              	.LFB64:
  27              		.file 1 "main.c"
   1:main.c        **** 
   2:main.c        **** 
   3:main.c        **** 
   4:main.c        **** #include "project.h"
   5:main.c        **** #include <stdio.h>
   6:main.c        ****  #include <s0.h>
   7:main.c        **** volatile int32 time=0;
   8:main.c        **** float32 VoltsADC[3];
   9:main.c        **** char str[12],str2[12];
  10:main.c        **** char recibir;
  11:main.c        **** int canal=0,cont=1;;
  12:main.c        **** 
  13:main.c        **** 
  14:main.c        **** 
  15:main.c        **** void pines(int a);
  16:main.c        **** 
  17:main.c        **** CY_ISR(Enviar)
  18:main.c        **** {   
  28              		.loc 1 18 0
  29              		.cfi_startproc
  30              		@ args = 0, pretend = 0, frame = 0
  31              		@ frame_needed = 0, uses_anonymous_args = 0
  32 0000 10B5     		push	{r4, lr}
  33              		.cfi_def_cfa_offset 8
  34              		.cfi_offset 4, -8
  35              		.cfi_offset 14, -4
  19:main.c        ****     
  20:main.c        ****    sprintf(str2,"%ld \n  ",(ADC_GetResult32()));
  36              		.loc 1 20 0
  37 0002 FFF7FEFF 		bl	ADC_GetResult32
ARM GAS  C:\Users\celua\AppData\Local\Temp\ccnpXE83.s 			page 2


  38              	.LVL0:
  39 0006 054C     		ldr	r4, .L3
  40 0008 0246     		mov	r2, r0
  41 000a 0549     		ldr	r1, .L3+4
  42 000c 2046     		mov	r0, r4
  43 000e FFF7FEFF 		bl	sprintf
  44              	.LVL1:
  21:main.c        ****    UART_PutString(str2); 
  45              		.loc 1 21 0
  46 0012 2046     		mov	r0, r4
  47 0014 FFF7FEFF 		bl	UART_PutString
  48              	.LVL2:
  49 0018 10BD     		pop	{r4, pc}
  50              	.L4:
  51 001a 00BF     		.align	2
  52              	.L3:
  53 001c 00000000 		.word	str2
  54 0020 00000000 		.word	.LC0
  55              		.cfi_endproc
  56              	.LFE64:
  57              		.size	Enviar, .-Enviar
  58              		.section	.text.InterruptRX,"ax",%progbits
  59              		.align	2
  60              		.global	InterruptRX
  61              		.thumb
  62              		.thumb_func
  63              		.type	InterruptRX, %function
  64              	InterruptRX:
  65              	.LFB65:
  22:main.c        ****    //ADC_Stop(); 
  23:main.c        **** 
  24:main.c        **** //if(cont==0){
  25:main.c        ****    //  s0_Write(1);
  26:main.c        ****  //   }
  27:main.c        ****    // if(cont==1){
  28:main.c        ****      //s0_Write(0); 
  29:main.c        ****      //}
  30:main.c        ****     //if(cont==1){cont=0; UART_PutString("\n"); } else{ cont++;}
  31:main.c        ****     //sprintf(str2," %.9f \n  ",ADC_CountsTo_Volts(ADC_GetResult32()));
  32:main.c        ****    
  33:main.c        **** //ADC_StartConvert();
  34:main.c        ****     
  35:main.c        **** //    AMux_FastSelect(cont);
  36:main.c        ****   //  ADC_Start();
  37:main.c        ****     //ADC_StartConvert();    
  38:main.c        ****     
  39:main.c        ****     
  40:main.c        ****         
  41:main.c        **** }
  42:main.c        **** 
  43:main.c        **** CY_ISR(InterruptRX)
  44:main.c        **** {
  66              		.loc 1 44 0
  67              		.cfi_startproc
  68              		@ args = 0, pretend = 0, frame = 0
  69              		@ frame_needed = 0, uses_anonymous_args = 0
  70 0000 08B5     		push	{r3, lr}
ARM GAS  C:\Users\celua\AppData\Local\Temp\ccnpXE83.s 			page 3


  71              		.cfi_def_cfa_offset 8
  72              		.cfi_offset 3, -8
  73              		.cfi_offset 14, -4
  45:main.c        ****     recibir = UART_GetChar();
  74              		.loc 1 45 0
  75 0002 FFF7FEFF 		bl	UART_GetChar
  76              	.LVL3:
  77 0006 094B     		ldr	r3, .L10
  78 0008 1870     		strb	r0, [r3]
  46:main.c        ****     
  47:main.c        ****     if(recibir == '0')
  79              		.loc 1 47 0
  80 000a 3028     		cmp	r0, #48
  81 000c 02D1     		bne	.L6
  48:main.c        ****     {
  49:main.c        ****         canal=0;
  82              		.loc 1 49 0
  83 000e 0022     		movs	r2, #0
  84 0010 074B     		ldr	r3, .L10+4
  85 0012 1A60     		str	r2, [r3]
  86              	.L6:
  50:main.c        ****     }
  51:main.c        ****     
  52:main.c        ****     if(recibir == '1')
  87              		.loc 1 52 0
  88 0014 3128     		cmp	r0, #49
  89 0016 02D1     		bne	.L7
  53:main.c        ****     {
  54:main.c        ****         canal=1;
  90              		.loc 1 54 0
  91 0018 0122     		movs	r2, #1
  92 001a 054B     		ldr	r3, .L10+4
  93 001c 1A60     		str	r2, [r3]
  94              	.L7:
  55:main.c        ****     }
  56:main.c        ****     
  57:main.c        ****     if(recibir == '2')
  95              		.loc 1 57 0
  96 001e 3228     		cmp	r0, #50
  97 0020 02D1     		bne	.L5
  58:main.c        ****     {
  59:main.c        ****         canal=2;
  98              		.loc 1 59 0
  99 0022 0222     		movs	r2, #2
 100 0024 024B     		ldr	r3, .L10+4
 101 0026 1A60     		str	r2, [r3]
 102              	.L5:
 103 0028 08BD     		pop	{r3, pc}
 104              	.L11:
 105 002a 00BF     		.align	2
 106              	.L10:
 107 002c 00000000 		.word	recibir
 108 0030 00000000 		.word	.LANCHOR0
 109              		.cfi_endproc
 110              	.LFE65:
 111              		.size	InterruptRX, .-InterruptRX
 112              		.section	.text.cambio,"ax",%progbits
ARM GAS  C:\Users\celua\AppData\Local\Temp\ccnpXE83.s 			page 4


 113              		.align	2
 114              		.global	cambio
 115              		.thumb
 116              		.thumb_func
 117              		.type	cambio, %function
 118              	cambio:
 119              	.LFB66:
  60:main.c        ****     }
  61:main.c        **** }
  62:main.c        **** int i=1;
  63:main.c        **** CY_ISR(cambio)
  64:main.c        **** {   
 120              		.loc 1 64 0
 121              		.cfi_startproc
 122              		@ args = 0, pretend = 0, frame = 0
 123              		@ frame_needed = 0, uses_anonymous_args = 0
 124 0000 08B5     		push	{r3, lr}
 125              		.cfi_def_cfa_offset 8
 126              		.cfi_offset 3, -8
 127              		.cfi_offset 14, -4
  65:main.c        ****     isr_glitch_ClearPending();
 128              		.loc 1 65 0
 129 0002 FFF7FEFF 		bl	isr_glitch_ClearPending
 130              	.LVL4:
  66:main.c        ****     if(i==0){ADC_stopConversion; ADC_StopConvert();i=1;} else {ADC_Start();i=0;ADC_StartConvert();}
 131              		.loc 1 66 0
 132 0006 0C4B     		ldr	r3, .L16
 133 0008 1B68     		ldr	r3, [r3]
 134 000a 3BB9     		cbnz	r3, .L13
 135              		.loc 1 66 0 is_stmt 0 discriminator 1
 136 000c 0B4B     		ldr	r3, .L16+4
 137 000e 1B78     		ldrb	r3, [r3]	@ zero_extendqisi2
 138 0010 FFF7FEFF 		bl	ADC_StopConvert
 139              	.LVL5:
 140 0014 0122     		movs	r2, #1
 141 0016 084B     		ldr	r3, .L16
 142 0018 1A60     		str	r2, [r3]
 143 001a 06E0     		b	.L14
 144              	.L13:
 145              		.loc 1 66 0 discriminator 2
 146 001c FFF7FEFF 		bl	ADC_Start
 147              	.LVL6:
 148 0020 0022     		movs	r2, #0
 149 0022 054B     		ldr	r3, .L16
 150 0024 1A60     		str	r2, [r3]
 151 0026 FFF7FEFF 		bl	ADC_StartConvert
 152              	.LVL7:
 153              	.L14:
  67:main.c        ****     LED_Write(~LED_Read());
 154              		.loc 1 67 0 is_stmt 1
 155 002a FFF7FEFF 		bl	LED_Read
 156              	.LVL8:
 157 002e C043     		mvns	r0, r0
 158 0030 C0B2     		uxtb	r0, r0
 159 0032 FFF7FEFF 		bl	LED_Write
 160              	.LVL9:
 161 0036 08BD     		pop	{r3, pc}
ARM GAS  C:\Users\celua\AppData\Local\Temp\ccnpXE83.s 			page 5


 162              	.L17:
 163              		.align	2
 164              	.L16:
 165 0038 00000000 		.word	.LANCHOR1
 166 003c 00000000 		.word	ADC_stopConversion
 167              		.cfi_endproc
 168              	.LFE66:
 169              		.size	cambio, .-cambio
 170              		.section	.text.main,"ax",%progbits
 171              		.align	2
 172              		.global	main
 173              		.thumb
 174              		.thumb_func
 175              		.type	main, %function
 176              	main:
 177              	.LFB67:
  68:main.c        ****     
  69:main.c        **** }
  70:main.c        **** 
  71:main.c        **** CY_ISR_PROTO(cambio);
  72:main.c        **** 
  73:main.c        **** 
  74:main.c        **** 
  75:main.c        **** 
  76:main.c        **** 
  77:main.c        **** int main(void)
  78:main.c        **** {
 178              		.loc 1 78 0
 179              		.cfi_startproc
 180              		@ Volatile: function does not return.
 181              		@ args = 0, pretend = 0, frame = 0
 182              		@ frame_needed = 0, uses_anonymous_args = 0
 183 0000 08B5     		push	{r3, lr}
 184              		.cfi_def_cfa_offset 8
 185              		.cfi_offset 3, -8
 186              		.cfi_offset 14, -4
  79:main.c        ****     
  80:main.c        ****     CyGlobalIntEnable;
 187              		.loc 1 80 0
 188              		.syntax unified
 189              	@ 80 "main.c" 1
 190 0002 62B6     		CPSIE   i
 191              	@ 0 "" 2
  81:main.c        ****     isr_glitch_StartEx(cambio);    
 192              		.loc 1 81 0
 193              		.thumb
 194              		.syntax unified
 195 0004 0648     		ldr	r0, .L21
 196 0006 FFF7FEFF 		bl	isr_glitch_StartEx
 197              	.LVL10:
  82:main.c        ****     WaveDAC8_1_Start();
 198              		.loc 1 82 0
 199 000a FFF7FEFF 		bl	WaveDAC8_1_Start
 200              	.LVL11:
  83:main.c        ****     
  84:main.c        ****     
  85:main.c        ****     
ARM GAS  C:\Users\celua\AppData\Local\Temp\ccnpXE83.s 			page 6


  86:main.c        ****     UART_Start();
 201              		.loc 1 86 0
 202 000e FFF7FEFF 		bl	UART_Start
 203              	.LVL12:
  87:main.c        ****     
  88:main.c        ****     isrRX_StartEx(InterruptRX);
 204              		.loc 1 88 0
 205 0012 0448     		ldr	r0, .L21+4
 206 0014 FFF7FEFF 		bl	isrRX_StartEx
 207              	.LVL13:
  89:main.c        ****     isrEnvio_StartEx(Enviar);
 208              		.loc 1 89 0
 209 0018 0348     		ldr	r0, .L21+8
 210 001a FFF7FEFF 		bl	isrEnvio_StartEx
 211              	.LVL14:
 212              	.L19:
 213 001e FEE7     		b	.L19
 214              	.L22:
 215              		.align	2
 216              	.L21:
 217 0020 00000000 		.word	cambio
 218 0024 00000000 		.word	InterruptRX
 219 0028 00000000 		.word	Enviar
 220              		.cfi_endproc
 221              	.LFE67:
 222              		.size	main, .-main
 223              		.section	.text.pines,"ax",%progbits
 224              		.align	2
 225              		.global	pines
 226              		.thumb
 227              		.thumb_func
 228              		.type	pines, %function
 229              	pines:
 230              	.LFB68:
  90:main.c        ****     
  91:main.c        ****     for(;;)
  92:main.c        ****     {/*
  93:main.c        ****         AMux_FastSelect(0);
  94:main.c        ****         ADC_StartConvert();
  95:main.c        ****         ADC_IsEndConversion(ADC_WAIT_FOR_RESULT);
  96:main.c        ****         enteros[0]=ADC_GetResult32();
  97:main.c        ****         ADC_StopConvert();
  98:main.c        ****         
  99:main.c        ****         AMux_FastSelect(1);
 100:main.c        ****         ADC_StartConvert();
 101:main.c        ****         ADC_IsEndConversion(ADC_WAIT_FOR_RESULT);
 102:main.c        ****         enteros[1]=ADC_GetResult32();
 103:main.c        ****         ADC_StopConvert();
 104:main.c        ****         
 105:main.c        ****         AMux_FastSelect(2);
 106:main.c        ****         ADC_StartConvert();
 107:main.c        ****         ADC_IsEndConversion(ADC_WAIT_FOR_RESULT);
 108:main.c        ****         enteros[2]=ADC_GetResult32();
 109:main.c        ****         ADC_StopConvert();
 110:main.c        ****         
 111:main.c        ****         VoltsADC[0] = ADC_CountsTo_Volts(enteros[0]);
 112:main.c        ****         VoltsADC[1] = ADC_CountsTo_Volts(enteros[1]);
ARM GAS  C:\Users\celua\AppData\Local\Temp\ccnpXE83.s 			page 7


 113:main.c        ****         VoltsADC[2] = ADC_CountsTo_Volts(enteros[2]);
 114:main.c        ****         */
 115:main.c        ****        
 116:main.c        ****         
 117:main.c        ****     }
 118:main.c        **** }
 119:main.c        **** 
 120:main.c        **** /* [] END OF FILE */
 121:main.c        **** 
 122:main.c        **** 
 123:main.c        **** void pines(int a){
 231              		.loc 1 123 0
 232              		.cfi_startproc
 233              		@ args = 0, pretend = 0, frame = 0
 234              		@ frame_needed = 0, uses_anonymous_args = 0
 235              	.LVL15:
 236 0000 08B5     		push	{r3, lr}
 237              		.cfi_def_cfa_offset 8
 238              		.cfi_offset 3, -8
 239              		.cfi_offset 14, -4
 124:main.c        **** 
 125:main.c        **** switch (a){
 240              		.loc 1 125 0
 241 0002 0128     		cmp	r0, #1
 242 0004 02D0     		beq	.L25
 243 0006 0228     		cmp	r0, #2
 244 0008 0DD0     		beq	.L26
 245 000a 08BD     		pop	{r3, pc}
 246              	.L25:
 126:main.c        **** 
 127:main.c        ****     case 1:
 128:main.c        ****     s0_Write(0);
 247              		.loc 1 128 0
 248 000c 0020     		movs	r0, #0
 249              	.LVL16:
 250 000e FFF7FEFF 		bl	s0_Write
 251              	.LVL17:
 129:main.c        ****     s1_Write(0);
 252              		.loc 1 129 0
 253 0012 0020     		movs	r0, #0
 254 0014 FFF7FEFF 		bl	s1_Write
 255              	.LVL18:
 130:main.c        ****     s2_Write(0);
 256              		.loc 1 130 0
 257 0018 0020     		movs	r0, #0
 258 001a FFF7FEFF 		bl	s2_Write
 259              	.LVL19:
 131:main.c        ****     s3_Write(0);
 260              		.loc 1 131 0
 261 001e 0020     		movs	r0, #0
 262 0020 FFF7FEFF 		bl	s3_Write
 263              	.LVL20:
 132:main.c        ****     break;
 264              		.loc 1 132 0
 265 0024 08BD     		pop	{r3, pc}
 266              	.LVL21:
 267              	.L26:
ARM GAS  C:\Users\celua\AppData\Local\Temp\ccnpXE83.s 			page 8


 133:main.c        ****     
 134:main.c        ****     case 2:
 135:main.c        ****     s0_Write(1);
 268              		.loc 1 135 0
 269 0026 0120     		movs	r0, #1
 270              	.LVL22:
 271 0028 FFF7FEFF 		bl	s0_Write
 272              	.LVL23:
 136:main.c        ****     s1_Write(0);
 273              		.loc 1 136 0
 274 002c 0020     		movs	r0, #0
 275 002e FFF7FEFF 		bl	s1_Write
 276              	.LVL24:
 137:main.c        ****     s2_Write(0);
 277              		.loc 1 137 0
 278 0032 0020     		movs	r0, #0
 279 0034 FFF7FEFF 		bl	s2_Write
 280              	.LVL25:
 138:main.c        ****     s3_Write(0);
 281              		.loc 1 138 0
 282 0038 0020     		movs	r0, #0
 283 003a FFF7FEFF 		bl	s3_Write
 284              	.LVL26:
 285 003e 08BD     		pop	{r3, pc}
 286              		.cfi_endproc
 287              	.LFE68:
 288              		.size	pines, .-pines
 289              		.global	i
 290              		.global	cont
 291              		.global	canal
 292              		.comm	recibir,1,1
 293              		.comm	str2,12,4
 294              		.comm	str,12,4
 295              		.comm	VoltsADC,12,4
 296              		.global	time
 297              		.data
 298              		.align	2
 299              		.set	.LANCHOR1,. + 0
 300              		.type	i, %object
 301              		.size	i, 4
 302              	i:
 303 0000 01000000 		.word	1
 304              		.type	cont, %object
 305              		.size	cont, 4
 306              	cont:
 307 0004 01000000 		.word	1
 308              		.section	.rodata.str1.4,"aMS",%progbits,1
 309              		.align	2
 310              	.LC0:
 311 0000 256C6420 		.ascii	"%ld \012  \000"
 311      0A202000 
 312              		.bss
 313              		.align	2
 314              		.set	.LANCHOR0,. + 0
 315              		.type	canal, %object
 316              		.size	canal, 4
 317              	canal:
ARM GAS  C:\Users\celua\AppData\Local\Temp\ccnpXE83.s 			page 9


 318 0000 00000000 		.space	4
 319              		.type	time, %object
 320              		.size	time, 4
 321              	time:
 322 0004 00000000 		.space	4
 323              		.text
 324              	.Letext0:
 325              		.file 2 "c:\\program files (x86)\\cypress\\psoc creator\\4.4\\psoc creator\\import\\gnu\\arm\\5.4.
 326              		.file 3 "c:\\program files (x86)\\cypress\\psoc creator\\4.4\\psoc creator\\import\\gnu\\arm\\5.4.
 327              		.file 4 "Generated_Source\\PSoC5/cytypes.h"
 328              		.file 5 "Generated_Source\\PSoC5/ADC.h"
 329              		.file 6 "Generated_Source\\PSoC5/core_cm3.h"
 330              		.file 7 "c:\\program files (x86)\\cypress\\psoc creator\\4.4\\psoc creator\\import\\gnu\\arm\\5.4.
 331              		.file 8 "Generated_Source\\PSoC5/UART.h"
 332              		.file 9 "Generated_Source\\PSoC5/isr_glitch.h"
 333              		.file 10 "Generated_Source\\PSoC5/LED.h"
 334              		.file 11 "Generated_Source\\PSoC5/WaveDAC8_1.h"
 335              		.file 12 "Generated_Source\\PSoC5/isrRX.h"
 336              		.file 13 "Generated_Source\\PSoC5/isrEnvio.h"
 337              		.file 14 "Generated_Source\\PSoC5/s0.h"
 338              		.file 15 "Generated_Source\\PSoC5/s1.h"
 339              		.file 16 "Generated_Source\\PSoC5/s2.h"
 340              		.file 17 "Generated_Source\\PSoC5/s3.h"