ARM GAS  C:\Users\thetr\AppData\Local\Temp\ccZuAcPl.s 			page 1


   1              		.syntax unified
   2              		.cpu cortex-m3
   3              		.fpu softvfp
   4              		.eabi_attribute 20, 1
   5              		.eabi_attribute 21, 1
   6              		.eabi_attribute 23, 3
   7              		.eabi_attribute 24, 1
   8              		.eabi_attribute 25, 1
   9              		.eabi_attribute 26, 1
  10              		.eabi_attribute 30, 1
  11              		.eabi_attribute 34, 1
  12              		.eabi_attribute 18, 4
  13              		.thumb
  14              		.file	"LCD.c"
  15              		.text
  16              	.Ltext0:
  17              		.cfi_sections	.debug_frame
  18              		.section	.text.LCD_WrCntrlNib,"ax",%progbits
  19              		.align	2
  20              		.thumb
  21              		.thumb_func
  22              		.type	LCD_WrCntrlNib, %function
  23              	LCD_WrCntrlNib:
  24              	.LFB11:
  25              		.file 1 "Generated_Source\\PSoC5\\LCD.c"
   1:Generated_Source\PSoC5/LCD.c **** /*******************************************************************************
   2:Generated_Source\PSoC5/LCD.c **** * File Name: LCD.c
   3:Generated_Source\PSoC5/LCD.c **** * Version 1.1
   4:Generated_Source\PSoC5/LCD.c **** *
   5:Generated_Source\PSoC5/LCD.c **** * Description:
   6:Generated_Source\PSoC5/LCD.c **** *  This file provides source code for the Character LCD component's API.
   7:Generated_Source\PSoC5/LCD.c **** *
   8:Generated_Source\PSoC5/LCD.c **** * Note:
   9:Generated_Source\PSoC5/LCD.c **** *
  10:Generated_Source\PSoC5/LCD.c **** ********************************************************************************
  11:Generated_Source\PSoC5/LCD.c **** * Copyright 2008-2012, Cypress Semiconductor Corporation.  All rights reserved.
  12:Generated_Source\PSoC5/LCD.c **** * You may use this file only in accordance with the license, terms, conditions,
  13:Generated_Source\PSoC5/LCD.c **** * disclaimers, and limitations in the end user license agreement accompanying
  14:Generated_Source\PSoC5/LCD.c **** * the software package with which this file was provided.
  15:Generated_Source\PSoC5/LCD.c **** *******************************************************************************/
  16:Generated_Source\PSoC5/LCD.c **** 
  17:Generated_Source\PSoC5/LCD.c **** #include "CyLib.h"
  18:Generated_Source\PSoC5/LCD.c **** #include "LCD.h"
  19:Generated_Source\PSoC5/LCD.c **** 
  20:Generated_Source\PSoC5/LCD.c **** 
  21:Generated_Source\PSoC5/LCD.c **** static void LCD_WrDatNib(uint8 nibble) ;
  22:Generated_Source\PSoC5/LCD.c **** static void LCD_WrCntrlNib(uint8 nibble) ;
  23:Generated_Source\PSoC5/LCD.c **** 
  24:Generated_Source\PSoC5/LCD.c **** /* Stores the state of conponent. Indicates wherewer component is 
  25:Generated_Source\PSoC5/LCD.c **** * in enable state or not.
  26:Generated_Source\PSoC5/LCD.c **** */
  27:Generated_Source\PSoC5/LCD.c **** uint8 LCD_enableState = 0u;
  28:Generated_Source\PSoC5/LCD.c **** 
  29:Generated_Source\PSoC5/LCD.c **** uint8 LCD_initVar = 0u;
  30:Generated_Source\PSoC5/LCD.c **** 
  31:Generated_Source\PSoC5/LCD.c **** 
  32:Generated_Source\PSoC5/LCD.c **** /*******************************************************************************
ARM GAS  C:\Users\thetr\AppData\Local\Temp\ccZuAcPl.s 			page 2


  33:Generated_Source\PSoC5/LCD.c **** * Function Name: LCD_Init
  34:Generated_Source\PSoC5/LCD.c **** ********************************************************************************
  35:Generated_Source\PSoC5/LCD.c **** *
  36:Generated_Source\PSoC5/LCD.c **** * Summary:
  37:Generated_Source\PSoC5/LCD.c **** *  Perform initialization required for components normal work.
  38:Generated_Source\PSoC5/LCD.c **** *  This function initializes the LCD hardware module as follows:
  39:Generated_Source\PSoC5/LCD.c **** *        Enable 4-bit interface
  40:Generated_Source\PSoC5/LCD.c **** *        Clear the display
  41:Generated_Source\PSoC5/LCD.c **** *        Enable auto cursor increment
  42:Generated_Source\PSoC5/LCD.c **** *        Resets the cursor to start position
  43:Generated_Source\PSoC5/LCD.c **** *  Also loads custom character set to LCD if it was defined in the customizer.
  44:Generated_Source\PSoC5/LCD.c **** *
  45:Generated_Source\PSoC5/LCD.c **** * Parameters:
  46:Generated_Source\PSoC5/LCD.c **** *  None.
  47:Generated_Source\PSoC5/LCD.c **** *
  48:Generated_Source\PSoC5/LCD.c **** * Return:
  49:Generated_Source\PSoC5/LCD.c **** *  None.
  50:Generated_Source\PSoC5/LCD.c **** *
  51:Generated_Source\PSoC5/LCD.c **** * Reentrant:
  52:Generated_Source\PSoC5/LCD.c **** *  No.
  53:Generated_Source\PSoC5/LCD.c **** *
  54:Generated_Source\PSoC5/LCD.c **** *******************************************************************************/
  55:Generated_Source\PSoC5/LCD.c **** void LCD_Init(void) 
  56:Generated_Source\PSoC5/LCD.c **** {
  57:Generated_Source\PSoC5/LCD.c ****     /* INIT CODE */
  58:Generated_Source\PSoC5/LCD.c ****     CyDelay(40u);                                                        /* Delay 40 ms */
  59:Generated_Source\PSoC5/LCD.c ****     LCD_WrCntrlNib(LCD_DISPLAY_8_BIT_INIT);   /* Selects 8-bit mode */
  60:Generated_Source\PSoC5/LCD.c ****     CyDelay(5u);                                                         /* Delay 5 ms */
  61:Generated_Source\PSoC5/LCD.c ****     LCD_WrCntrlNib(LCD_DISPLAY_8_BIT_INIT);   /* Selects 8-bit mode */
  62:Generated_Source\PSoC5/LCD.c ****     CyDelay(15u);                                                        /* Delay 15 ms */
  63:Generated_Source\PSoC5/LCD.c ****     LCD_WrCntrlNib(LCD_DISPLAY_8_BIT_INIT);   /* Selects 8-bit mode */
  64:Generated_Source\PSoC5/LCD.c ****     CyDelay(1u);                                                         /* Delay 1 ms */
  65:Generated_Source\PSoC5/LCD.c ****     LCD_WrCntrlNib(LCD_DISPLAY_4_BIT_INIT);   /* Selects 4-bit mode */
  66:Generated_Source\PSoC5/LCD.c ****     CyDelay(5u);                                                         /* Delay 5 ms */
  67:Generated_Source\PSoC5/LCD.c **** 
  68:Generated_Source\PSoC5/LCD.c ****     LCD_WriteControl(LCD_CURSOR_AUTO_INCR_ON);    /* Incr Cursor After Writes */
  69:Generated_Source\PSoC5/LCD.c ****     LCD_WriteControl(LCD_DISPLAY_CURSOR_ON);      /* Turn Display, Cursor ON */
  70:Generated_Source\PSoC5/LCD.c ****     LCD_WriteControl(LCD_DISPLAY_2_LINES_5x10);   /* 2 Lines by 5x10 Characters */
  71:Generated_Source\PSoC5/LCD.c ****     LCD_WriteControl(LCD_DISPLAY_CURSOR_OFF);     /* Turn Display, Cursor OFF */
  72:Generated_Source\PSoC5/LCD.c ****     LCD_WriteControl(LCD_CLEAR_DISPLAY);          /* Clear LCD Screen */
  73:Generated_Source\PSoC5/LCD.c ****     LCD_WriteControl(LCD_DISPLAY_ON_CURSOR_OFF);  /* Turn Display ON, Cursor OFF */
  74:Generated_Source\PSoC5/LCD.c ****     LCD_WriteControl(LCD_RESET_CURSOR_POSITION);  /* Set Cursor to 0,0 */
  75:Generated_Source\PSoC5/LCD.c ****     CyDelay(5u);
  76:Generated_Source\PSoC5/LCD.c **** 
  77:Generated_Source\PSoC5/LCD.c ****     #if(LCD_CUSTOM_CHAR_SET != LCD_NONE)
  78:Generated_Source\PSoC5/LCD.c ****         LCD_LoadCustomFonts(LCD_customFonts);
  79:Generated_Source\PSoC5/LCD.c ****     #endif /* LCD_CUSTOM_CHAR_SET != LCD_NONE */
  80:Generated_Source\PSoC5/LCD.c **** }
  81:Generated_Source\PSoC5/LCD.c **** 
  82:Generated_Source\PSoC5/LCD.c **** 
  83:Generated_Source\PSoC5/LCD.c **** /*******************************************************************************
  84:Generated_Source\PSoC5/LCD.c **** * Function Name: LCD_Enable
  85:Generated_Source\PSoC5/LCD.c **** ********************************************************************************
  86:Generated_Source\PSoC5/LCD.c **** *
  87:Generated_Source\PSoC5/LCD.c **** * Summary:
  88:Generated_Source\PSoC5/LCD.c **** *  Turns on the display.
  89:Generated_Source\PSoC5/LCD.c **** *
ARM GAS  C:\Users\thetr\AppData\Local\Temp\ccZuAcPl.s 			page 3


  90:Generated_Source\PSoC5/LCD.c **** * Parameters:
  91:Generated_Source\PSoC5/LCD.c **** *  None.
  92:Generated_Source\PSoC5/LCD.c **** *
  93:Generated_Source\PSoC5/LCD.c **** * Return:
  94:Generated_Source\PSoC5/LCD.c **** *  None.
  95:Generated_Source\PSoC5/LCD.c **** *
  96:Generated_Source\PSoC5/LCD.c **** * Reentrant:
  97:Generated_Source\PSoC5/LCD.c **** *  No.
  98:Generated_Source\PSoC5/LCD.c **** *
  99:Generated_Source\PSoC5/LCD.c **** * Theory:
 100:Generated_Source\PSoC5/LCD.c **** *  This finction has no effect when it called first time as
 101:Generated_Source\PSoC5/LCD.c **** *  LCD_Init() turns on the LCD.
 102:Generated_Source\PSoC5/LCD.c **** *
 103:Generated_Source\PSoC5/LCD.c **** *******************************************************************************/
 104:Generated_Source\PSoC5/LCD.c **** void LCD_Enable(void) 
 105:Generated_Source\PSoC5/LCD.c **** {
 106:Generated_Source\PSoC5/LCD.c ****     LCD_DisplayOn();
 107:Generated_Source\PSoC5/LCD.c ****     LCD_enableState = 1u;
 108:Generated_Source\PSoC5/LCD.c **** }
 109:Generated_Source\PSoC5/LCD.c **** 
 110:Generated_Source\PSoC5/LCD.c **** 
 111:Generated_Source\PSoC5/LCD.c **** /*******************************************************************************
 112:Generated_Source\PSoC5/LCD.c **** * Function Name: LCD_Start
 113:Generated_Source\PSoC5/LCD.c **** ********************************************************************************
 114:Generated_Source\PSoC5/LCD.c **** *
 115:Generated_Source\PSoC5/LCD.c **** * Summary:
 116:Generated_Source\PSoC5/LCD.c **** *  Perform initialization required for components normal work.
 117:Generated_Source\PSoC5/LCD.c **** *  This function initializes the LCD hardware module as follows:
 118:Generated_Source\PSoC5/LCD.c **** *        Enable 4-bit interface
 119:Generated_Source\PSoC5/LCD.c **** *        Clear the display
 120:Generated_Source\PSoC5/LCD.c **** *        Enable auto cursor increment
 121:Generated_Source\PSoC5/LCD.c **** *        Resets the cursor to start position
 122:Generated_Source\PSoC5/LCD.c **** *  Also loads custom character set to LCD if it was defined in the customizer.
 123:Generated_Source\PSoC5/LCD.c **** *  If it was not the first call in this project then it just turns on the
 124:Generated_Source\PSoC5/LCD.c **** *  display
 125:Generated_Source\PSoC5/LCD.c **** *
 126:Generated_Source\PSoC5/LCD.c **** *
 127:Generated_Source\PSoC5/LCD.c **** * Parameters:
 128:Generated_Source\PSoC5/LCD.c **** *  LCD_initVar - global variable.
 129:Generated_Source\PSoC5/LCD.c **** *
 130:Generated_Source\PSoC5/LCD.c **** * Return:
 131:Generated_Source\PSoC5/LCD.c **** *  LCD_initVar - global variable.
 132:Generated_Source\PSoC5/LCD.c **** *
 133:Generated_Source\PSoC5/LCD.c **** * Reentrant:
 134:Generated_Source\PSoC5/LCD.c **** *  No.
 135:Generated_Source\PSoC5/LCD.c **** *
 136:Generated_Source\PSoC5/LCD.c **** *******************************************************************************/
 137:Generated_Source\PSoC5/LCD.c **** void LCD_Start(void) 
 138:Generated_Source\PSoC5/LCD.c **** {
 139:Generated_Source\PSoC5/LCD.c ****     /* If not initialized then perform initialization */
 140:Generated_Source\PSoC5/LCD.c ****     if(LCD_initVar == 0u)
 141:Generated_Source\PSoC5/LCD.c ****     {
 142:Generated_Source\PSoC5/LCD.c ****         LCD_Init();
 143:Generated_Source\PSoC5/LCD.c ****         LCD_initVar = 1u;
 144:Generated_Source\PSoC5/LCD.c ****     }
 145:Generated_Source\PSoC5/LCD.c **** 
 146:Generated_Source\PSoC5/LCD.c ****     /* Turn on the LCD */
ARM GAS  C:\Users\thetr\AppData\Local\Temp\ccZuAcPl.s 			page 4


 147:Generated_Source\PSoC5/LCD.c ****     LCD_Enable();
 148:Generated_Source\PSoC5/LCD.c **** }
 149:Generated_Source\PSoC5/LCD.c **** 
 150:Generated_Source\PSoC5/LCD.c **** 
 151:Generated_Source\PSoC5/LCD.c **** /*******************************************************************************
 152:Generated_Source\PSoC5/LCD.c **** * Function Name: LCD_Stop
 153:Generated_Source\PSoC5/LCD.c **** ********************************************************************************
 154:Generated_Source\PSoC5/LCD.c **** *
 155:Generated_Source\PSoC5/LCD.c **** * Summary:
 156:Generated_Source\PSoC5/LCD.c **** *  Turns off the display of the LCD screen.
 157:Generated_Source\PSoC5/LCD.c **** *
 158:Generated_Source\PSoC5/LCD.c **** * Parameters:
 159:Generated_Source\PSoC5/LCD.c **** *  None.
 160:Generated_Source\PSoC5/LCD.c **** *
 161:Generated_Source\PSoC5/LCD.c **** * Return:
 162:Generated_Source\PSoC5/LCD.c **** *  None.
 163:Generated_Source\PSoC5/LCD.c **** *
 164:Generated_Source\PSoC5/LCD.c **** * Reentrant:
 165:Generated_Source\PSoC5/LCD.c **** *  No.
 166:Generated_Source\PSoC5/LCD.c **** *
 167:Generated_Source\PSoC5/LCD.c **** *******************************************************************************/
 168:Generated_Source\PSoC5/LCD.c **** void LCD_Stop(void) 
 169:Generated_Source\PSoC5/LCD.c **** {
 170:Generated_Source\PSoC5/LCD.c ****     /* Calls LCD Off Macro */
 171:Generated_Source\PSoC5/LCD.c ****     LCD_DisplayOff();
 172:Generated_Source\PSoC5/LCD.c ****     LCD_enableState = 0u;
 173:Generated_Source\PSoC5/LCD.c **** }
 174:Generated_Source\PSoC5/LCD.c **** 
 175:Generated_Source\PSoC5/LCD.c **** 
 176:Generated_Source\PSoC5/LCD.c **** /*******************************************************************************
 177:Generated_Source\PSoC5/LCD.c **** *  Function Name: LCD_Position
 178:Generated_Source\PSoC5/LCD.c **** ********************************************************************************
 179:Generated_Source\PSoC5/LCD.c **** *
 180:Generated_Source\PSoC5/LCD.c **** * Summary:
 181:Generated_Source\PSoC5/LCD.c **** *  Moves active cursor location to a point specified by the input arguments
 182:Generated_Source\PSoC5/LCD.c **** *
 183:Generated_Source\PSoC5/LCD.c **** * Parameters:
 184:Generated_Source\PSoC5/LCD.c **** *  row:     Specific row of LCD module to be written
 185:Generated_Source\PSoC5/LCD.c **** *  column:  Column of LCD module to be written
 186:Generated_Source\PSoC5/LCD.c **** *
 187:Generated_Source\PSoC5/LCD.c **** * Return:
 188:Generated_Source\PSoC5/LCD.c **** *  None.
 189:Generated_Source\PSoC5/LCD.c **** *
 190:Generated_Source\PSoC5/LCD.c **** * Note:
 191:Generated_Source\PSoC5/LCD.c **** *  This only applies for LCD displays which use the 2X40 address mode.
 192:Generated_Source\PSoC5/LCD.c **** *  This results in Row 2 offset from row one by 0x28.
 193:Generated_Source\PSoC5/LCD.c **** *  When there are more than 2 rows, each row must be fewer than 20 characters.
 194:Generated_Source\PSoC5/LCD.c **** *
 195:Generated_Source\PSoC5/LCD.c **** *******************************************************************************/
 196:Generated_Source\PSoC5/LCD.c **** void LCD_Position(uint8 row, uint8 column) 
 197:Generated_Source\PSoC5/LCD.c **** {
 198:Generated_Source\PSoC5/LCD.c ****     switch (row)
 199:Generated_Source\PSoC5/LCD.c ****     {
 200:Generated_Source\PSoC5/LCD.c ****         case (uint8)0:
 201:Generated_Source\PSoC5/LCD.c ****             LCD_WriteControl(LCD_ROW_0_START + column);
 202:Generated_Source\PSoC5/LCD.c ****             break;
 203:Generated_Source\PSoC5/LCD.c ****         case (uint8) 1:
ARM GAS  C:\Users\thetr\AppData\Local\Temp\ccZuAcPl.s 			page 5


 204:Generated_Source\PSoC5/LCD.c ****             LCD_WriteControl(LCD_ROW_1_START + column);
 205:Generated_Source\PSoC5/LCD.c ****             break;
 206:Generated_Source\PSoC5/LCD.c ****         case (uint8) 2:
 207:Generated_Source\PSoC5/LCD.c ****             LCD_WriteControl(LCD_ROW_2_START + column);
 208:Generated_Source\PSoC5/LCD.c ****             break;
 209:Generated_Source\PSoC5/LCD.c ****         case (uint8) 3:
 210:Generated_Source\PSoC5/LCD.c ****             LCD_WriteControl(LCD_ROW_3_START + column);
 211:Generated_Source\PSoC5/LCD.c ****             break;
 212:Generated_Source\PSoC5/LCD.c ****         default:
 213:Generated_Source\PSoC5/LCD.c ****             /* if default case is hit, invalid row argument was passed.*/
 214:Generated_Source\PSoC5/LCD.c ****             break;
 215:Generated_Source\PSoC5/LCD.c ****     }
 216:Generated_Source\PSoC5/LCD.c **** }
 217:Generated_Source\PSoC5/LCD.c **** 
 218:Generated_Source\PSoC5/LCD.c **** 
 219:Generated_Source\PSoC5/LCD.c **** /*******************************************************************************
 220:Generated_Source\PSoC5/LCD.c **** * Function Name: LCD_PrintString
 221:Generated_Source\PSoC5/LCD.c **** ********************************************************************************
 222:Generated_Source\PSoC5/LCD.c **** *
 223:Generated_Source\PSoC5/LCD.c **** * Summary:
 224:Generated_Source\PSoC5/LCD.c **** *  Writes a zero terminated string to the LCD.
 225:Generated_Source\PSoC5/LCD.c **** *
 226:Generated_Source\PSoC5/LCD.c **** * Parameters:
 227:Generated_Source\PSoC5/LCD.c **** *  string:  pointer to head of char8 array to be written to the LCD module
 228:Generated_Source\PSoC5/LCD.c **** *
 229:Generated_Source\PSoC5/LCD.c **** * Return:
 230:Generated_Source\PSoC5/LCD.c **** *  None.
 231:Generated_Source\PSoC5/LCD.c **** *
 232:Generated_Source\PSoC5/LCD.c **** *******************************************************************************/
 233:Generated_Source\PSoC5/LCD.c **** void LCD_PrintString(char8 const string[]) 
 234:Generated_Source\PSoC5/LCD.c **** {
 235:Generated_Source\PSoC5/LCD.c ****     uint8 indexU8 = 1u;
 236:Generated_Source\PSoC5/LCD.c ****     char8 current = *string;
 237:Generated_Source\PSoC5/LCD.c **** 
 238:Generated_Source\PSoC5/LCD.c ****     /* Until null is reached, print next character */
 239:Generated_Source\PSoC5/LCD.c ****     while((char8) '\0' != current)
 240:Generated_Source\PSoC5/LCD.c ****     {
 241:Generated_Source\PSoC5/LCD.c ****         LCD_WriteData((uint8)current);
 242:Generated_Source\PSoC5/LCD.c ****         current = string[indexU8];
 243:Generated_Source\PSoC5/LCD.c ****         indexU8++;
 244:Generated_Source\PSoC5/LCD.c ****     }
 245:Generated_Source\PSoC5/LCD.c **** }
 246:Generated_Source\PSoC5/LCD.c **** 
 247:Generated_Source\PSoC5/LCD.c **** 
 248:Generated_Source\PSoC5/LCD.c **** /*******************************************************************************
 249:Generated_Source\PSoC5/LCD.c **** *  Function Name: LCD_PutChar
 250:Generated_Source\PSoC5/LCD.c **** ********************************************************************************
 251:Generated_Source\PSoC5/LCD.c **** *
 252:Generated_Source\PSoC5/LCD.c **** * Summary:
 253:Generated_Source\PSoC5/LCD.c **** *  Writes a single character to the current cursor position of the LCD module.
 254:Generated_Source\PSoC5/LCD.c **** *  Custom character names (_CUSTOM_0 through
 255:Generated_Source\PSoC5/LCD.c **** *  _CUSTOM_7) are acceptable as inputs.
 256:Generated_Source\PSoC5/LCD.c **** *
 257:Generated_Source\PSoC5/LCD.c **** * Parameters:
 258:Generated_Source\PSoC5/LCD.c **** *  character:  character to be written to the LCD
 259:Generated_Source\PSoC5/LCD.c **** *
 260:Generated_Source\PSoC5/LCD.c **** * Return:
ARM GAS  C:\Users\thetr\AppData\Local\Temp\ccZuAcPl.s 			page 6


 261:Generated_Source\PSoC5/LCD.c **** *  None.
 262:Generated_Source\PSoC5/LCD.c **** *
 263:Generated_Source\PSoC5/LCD.c **** *******************************************************************************/
 264:Generated_Source\PSoC5/LCD.c **** void LCD_PutChar(char8 character) 
 265:Generated_Source\PSoC5/LCD.c **** {
 266:Generated_Source\PSoC5/LCD.c ****     LCD_WriteData((uint8)character);
 267:Generated_Source\PSoC5/LCD.c **** }
 268:Generated_Source\PSoC5/LCD.c **** 
 269:Generated_Source\PSoC5/LCD.c **** 
 270:Generated_Source\PSoC5/LCD.c **** /*******************************************************************************
 271:Generated_Source\PSoC5/LCD.c **** *  Function Name: LCD_WriteData
 272:Generated_Source\PSoC5/LCD.c **** ********************************************************************************
 273:Generated_Source\PSoC5/LCD.c **** *
 274:Generated_Source\PSoC5/LCD.c **** * Summary:
 275:Generated_Source\PSoC5/LCD.c **** *  Writes a data byte to the LCD module's Data Display RAM.
 276:Generated_Source\PSoC5/LCD.c **** *
 277:Generated_Source\PSoC5/LCD.c **** * Parameters:
 278:Generated_Source\PSoC5/LCD.c **** *  dByte:  byte to be written to LCD module.
 279:Generated_Source\PSoC5/LCD.c **** *
 280:Generated_Source\PSoC5/LCD.c **** * Return:
 281:Generated_Source\PSoC5/LCD.c **** *  None.
 282:Generated_Source\PSoC5/LCD.c **** *
 283:Generated_Source\PSoC5/LCD.c **** *******************************************************************************/
 284:Generated_Source\PSoC5/LCD.c **** void LCD_WriteData(uint8 dByte) 
 285:Generated_Source\PSoC5/LCD.c **** {
 286:Generated_Source\PSoC5/LCD.c ****     uint8 nibble;
 287:Generated_Source\PSoC5/LCD.c **** 
 288:Generated_Source\PSoC5/LCD.c ****     /* Write high nibble */
 289:Generated_Source\PSoC5/LCD.c **** 	nibble = dByte >> LCD_NIBBLE_SHIFT;
 290:Generated_Source\PSoC5/LCD.c ****     LCD_WrDatNib(nibble);
 291:Generated_Source\PSoC5/LCD.c **** 
 292:Generated_Source\PSoC5/LCD.c ****      CyDelayUs(LCD_NIB_DELAY_US);
 293:Generated_Source\PSoC5/LCD.c **** 	 
 294:Generated_Source\PSoC5/LCD.c ****     /* Write low nibble */
 295:Generated_Source\PSoC5/LCD.c **** 	nibble = dByte & LCD_NIBBLE_MASK;
 296:Generated_Source\PSoC5/LCD.c ****     LCD_WrDatNib(nibble);
 297:Generated_Source\PSoC5/LCD.c **** 	
 298:Generated_Source\PSoC5/LCD.c **** 	CyDelayUs(LCD_DATA_DELAY_US);
 299:Generated_Source\PSoC5/LCD.c **** 
 300:Generated_Source\PSoC5/LCD.c **** }
 301:Generated_Source\PSoC5/LCD.c **** 
 302:Generated_Source\PSoC5/LCD.c **** 
 303:Generated_Source\PSoC5/LCD.c **** /*******************************************************************************
 304:Generated_Source\PSoC5/LCD.c **** *  Function Name: LCD_WriteControl
 305:Generated_Source\PSoC5/LCD.c **** ********************************************************************************
 306:Generated_Source\PSoC5/LCD.c **** *
 307:Generated_Source\PSoC5/LCD.c **** * Summary:
 308:Generated_Source\PSoC5/LCD.c **** *  Writes a command byte to the LCD module.
 309:Generated_Source\PSoC5/LCD.c **** *
 310:Generated_Source\PSoC5/LCD.c **** * Parameters:
 311:Generated_Source\PSoC5/LCD.c **** *  cByte:   byte to be written to LCD module.
 312:Generated_Source\PSoC5/LCD.c **** *
 313:Generated_Source\PSoC5/LCD.c **** * Return:
 314:Generated_Source\PSoC5/LCD.c **** *  None.
 315:Generated_Source\PSoC5/LCD.c **** *
 316:Generated_Source\PSoC5/LCD.c **** *******************************************************************************/
 317:Generated_Source\PSoC5/LCD.c **** void LCD_WriteControl(uint8 cByte) 
ARM GAS  C:\Users\thetr\AppData\Local\Temp\ccZuAcPl.s 			page 7


 318:Generated_Source\PSoC5/LCD.c **** {
 319:Generated_Source\PSoC5/LCD.c ****     uint8 nibble;
 320:Generated_Source\PSoC5/LCD.c **** 
 321:Generated_Source\PSoC5/LCD.c ****     /* WrCntrlNib(High Nibble) */
 322:Generated_Source\PSoC5/LCD.c **** 	 nibble = cByte >> LCD_NIBBLE_SHIFT;
 323:Generated_Source\PSoC5/LCD.c ****     LCD_WrCntrlNib(nibble);
 324:Generated_Source\PSoC5/LCD.c **** 
 325:Generated_Source\PSoC5/LCD.c ****     CyDelayUs(LCD_NIB_DELAY_US);
 326:Generated_Source\PSoC5/LCD.c **** 	
 327:Generated_Source\PSoC5/LCD.c ****     /* WrCntrlNib(Low Nibble) */
 328:Generated_Source\PSoC5/LCD.c **** 	nibble = cByte & LCD_NIBBLE_MASK;
 329:Generated_Source\PSoC5/LCD.c ****     LCD_WrCntrlNib(nibble);
 330:Generated_Source\PSoC5/LCD.c **** 
 331:Generated_Source\PSoC5/LCD.c ****      CyDelayUs(LCD_CMD_DELAY_US);
 332:Generated_Source\PSoC5/LCD.c **** }
 333:Generated_Source\PSoC5/LCD.c **** 
 334:Generated_Source\PSoC5/LCD.c **** 
 335:Generated_Source\PSoC5/LCD.c **** /*******************************************************************************
 336:Generated_Source\PSoC5/LCD.c **** * Function Name: LCD_IsReady
 337:Generated_Source\PSoC5/LCD.c **** ********************************************************************************
 338:Generated_Source\PSoC5/LCD.c **** *
 339:Generated_Source\PSoC5/LCD.c **** * Summary:
 340:Generated_Source\PSoC5/LCD.c **** *  Polls LCD until the ready bit is set.
 341:Generated_Source\PSoC5/LCD.c **** *
 342:Generated_Source\PSoC5/LCD.c **** * Parameters:
 343:Generated_Source\PSoC5/LCD.c **** *  None.
 344:Generated_Source\PSoC5/LCD.c **** *
 345:Generated_Source\PSoC5/LCD.c **** * Return:
 346:Generated_Source\PSoC5/LCD.c **** *  None.
 347:Generated_Source\PSoC5/LCD.c **** *
 348:Generated_Source\PSoC5/LCD.c **** * Note:
 349:Generated_Source\PSoC5/LCD.c **** *  Changes pins to High-Z.
 350:Generated_Source\PSoC5/LCD.c **** *
 351:Generated_Source\PSoC5/LCD.c **** *******************************************************************************/
 352:Generated_Source\PSoC5/LCD.c **** void LCD_IsReady(void) 
 353:Generated_Source\PSoC5/LCD.c **** {
 354:Generated_Source\PSoC5/LCD.c ****    
 355:Generated_Source\PSoC5/LCD.c **** 	CyDelay(1u);
 356:Generated_Source\PSoC5/LCD.c **** 	
 357:Generated_Source\PSoC5/LCD.c **** }
 358:Generated_Source\PSoC5/LCD.c **** 
 359:Generated_Source\PSoC5/LCD.c **** 
 360:Generated_Source\PSoC5/LCD.c **** /*******************************************************************************
 361:Generated_Source\PSoC5/LCD.c **** *  Function Name: LCD_WrDatNib
 362:Generated_Source\PSoC5/LCD.c **** ********************************************************************************
 363:Generated_Source\PSoC5/LCD.c **** *
 364:Generated_Source\PSoC5/LCD.c **** * Summary:
 365:Generated_Source\PSoC5/LCD.c **** *  Writes a data nibble to the LCD module.
 366:Generated_Source\PSoC5/LCD.c **** *
 367:Generated_Source\PSoC5/LCD.c **** * Parameters:
 368:Generated_Source\PSoC5/LCD.c **** *  nibble:  byte containing nibble in least significant nibble to be written
 369:Generated_Source\PSoC5/LCD.c **** *           to LCD module.
 370:Generated_Source\PSoC5/LCD.c **** *
 371:Generated_Source\PSoC5/LCD.c **** * Return:
 372:Generated_Source\PSoC5/LCD.c **** *  None.
 373:Generated_Source\PSoC5/LCD.c **** *
 374:Generated_Source\PSoC5/LCD.c **** *******************************************************************************/
ARM GAS  C:\Users\thetr\AppData\Local\Temp\ccZuAcPl.s 			page 8


 375:Generated_Source\PSoC5/LCD.c **** static void LCD_WrDatNib(uint8 nibble) 
 376:Generated_Source\PSoC5/LCD.c **** {
 377:Generated_Source\PSoC5/LCD.c **** 
 378:Generated_Source\PSoC5/LCD.c ****     /* RS shoul be low to select data register */
 379:Generated_Source\PSoC5/LCD.c ****     LCD_CNTL_REG |= LCD_RS;
 380:Generated_Source\PSoC5/LCD.c ****     /* Reset RW for write operation */
 381:Generated_Source\PSoC5/LCD.c ****     LCD_CNTL_REG &= ~LCD_RW;
 382:Generated_Source\PSoC5/LCD.c **** 
 383:Generated_Source\PSoC5/LCD.c ****     /* Two following lines of code will provide us with 40ns delay */
 384:Generated_Source\PSoC5/LCD.c ****     /* Clear data pins */
 385:Generated_Source\PSoC5/LCD.c ****     LCD_CNTL_REG &= ~LCD_DATA_MASK;
 386:Generated_Source\PSoC5/LCD.c **** 
 387:Generated_Source\PSoC5/LCD.c ****     /* Write in data, bring E high*/
 388:Generated_Source\PSoC5/LCD.c ****     LCD_CNTL_REG |= (LCD_E | nibble);
 389:Generated_Source\PSoC5/LCD.c **** 
 390:Generated_Source\PSoC5/LCD.c ****     /* Minimum of 230 ns delay */
 391:Generated_Source\PSoC5/LCD.c ****     CyDelayUs(1u);
 392:Generated_Source\PSoC5/LCD.c **** 
 393:Generated_Source\PSoC5/LCD.c ****     LCD_CNTL_REG &= ~LCD_E;
 394:Generated_Source\PSoC5/LCD.c **** 	
 395:Generated_Source\PSoC5/LCD.c **** }
 396:Generated_Source\PSoC5/LCD.c **** 
 397:Generated_Source\PSoC5/LCD.c **** 
 398:Generated_Source\PSoC5/LCD.c **** /*******************************************************************************
 399:Generated_Source\PSoC5/LCD.c **** *  Function Name: LCD_WrCntrlNib
 400:Generated_Source\PSoC5/LCD.c **** ********************************************************************************
 401:Generated_Source\PSoC5/LCD.c **** *
 402:Generated_Source\PSoC5/LCD.c **** * Summary:
 403:Generated_Source\PSoC5/LCD.c **** *  Writes a control nibble to the LCD module.
 404:Generated_Source\PSoC5/LCD.c **** *
 405:Generated_Source\PSoC5/LCD.c **** * Parameters:
 406:Generated_Source\PSoC5/LCD.c **** *  nibble:  byte containing nibble in least significant nibble to be written
 407:Generated_Source\PSoC5/LCD.c **** *           to LCD module.
 408:Generated_Source\PSoC5/LCD.c **** *
 409:Generated_Source\PSoC5/LCD.c **** * Return:
 410:Generated_Source\PSoC5/LCD.c **** *  None.
 411:Generated_Source\PSoC5/LCD.c **** *
 412:Generated_Source\PSoC5/LCD.c **** *******************************************************************************/
 413:Generated_Source\PSoC5/LCD.c **** static void LCD_WrCntrlNib(uint8 nibble) 
 414:Generated_Source\PSoC5/LCD.c **** {
  26              		.loc 1 414 0
  27              		.cfi_startproc
  28              		@ args = 0, pretend = 0, frame = 0
  29              		@ frame_needed = 0, uses_anonymous_args = 0
  30              	.LVL0:
  31 0000 10B5     		push	{r4, lr}
  32              		.cfi_def_cfa_offset 8
  33              		.cfi_offset 4, -8
  34              		.cfi_offset 14, -4
 415:Generated_Source\PSoC5/LCD.c **** 	
 416:Generated_Source\PSoC5/LCD.c **** 	/* RS and RW shoul be low to select instruction register and  write operation respectively */
 417:Generated_Source\PSoC5/LCD.c ****     LCD_CNTL_REG &= ~(LCD_RS | LCD_RW);
  35              		.loc 1 417 0
  36 0002 0B4C     		ldr	r4, .L3
  37 0004 2378     		ldrb	r3, [r4]	@ zero_extendqisi2
  38 0006 03F09F03 		and	r3, r3, #159
  39 000a 2370     		strb	r3, [r4]
ARM GAS  C:\Users\thetr\AppData\Local\Temp\ccZuAcPl.s 			page 9


 418:Generated_Source\PSoC5/LCD.c **** 
 419:Generated_Source\PSoC5/LCD.c ****     /* Two following lines of code will give provide ua with 40ns delay */
 420:Generated_Source\PSoC5/LCD.c ****     /* Clear data pins */
 421:Generated_Source\PSoC5/LCD.c ****     LCD_CNTL_REG &= ~LCD_DATA_MASK;
  40              		.loc 1 421 0
  41 000c 2378     		ldrb	r3, [r4]	@ zero_extendqisi2
  42 000e 03F0F003 		and	r3, r3, #240
  43 0012 2370     		strb	r3, [r4]
 422:Generated_Source\PSoC5/LCD.c **** 
 423:Generated_Source\PSoC5/LCD.c ****     /* Write control data and set enable signal */
 424:Generated_Source\PSoC5/LCD.c ****     LCD_CNTL_REG |= (LCD_E | nibble);
  44              		.loc 1 424 0
  45 0014 2378     		ldrb	r3, [r4]	@ zero_extendqisi2
  46 0016 1843     		orrs	r0, r0, r3
  47              	.LVL1:
  48 0018 40F01000 		orr	r0, r0, #16
  49 001c 2070     		strb	r0, [r4]
 425:Generated_Source\PSoC5/LCD.c **** 
 426:Generated_Source\PSoC5/LCD.c ****     /* Minimum of 230 ns delay */
 427:Generated_Source\PSoC5/LCD.c ****     CyDelayUs(1u);
  50              		.loc 1 427 0
  51 001e 0120     		movs	r0, #1
  52 0020 FFF7FEFF 		bl	CyDelayUs
  53              	.LVL2:
 428:Generated_Source\PSoC5/LCD.c **** 
 429:Generated_Source\PSoC5/LCD.c ****     LCD_CNTL_REG &= ~LCD_E;
  54              		.loc 1 429 0
  55 0024 2378     		ldrb	r3, [r4]	@ zero_extendqisi2
  56 0026 03F0EF03 		and	r3, r3, #239
  57 002a 2370     		strb	r3, [r4]
  58 002c 10BD     		pop	{r4, pc}
  59              	.L4:
  60 002e 00BF     		.align	2
  61              	.L3:
  62 0030 79640040 		.word	1073767545
  63              		.cfi_endproc
  64              	.LFE11:
  65              		.size	LCD_WrCntrlNib, .-LCD_WrCntrlNib
  66              		.section	.text.LCD_WrDatNib,"ax",%progbits
  67              		.align	2
  68              		.thumb
  69              		.thumb_func
  70              		.type	LCD_WrDatNib, %function
  71              	LCD_WrDatNib:
  72              	.LFB10:
 376:Generated_Source\PSoC5/LCD.c **** 
  73              		.loc 1 376 0
  74              		.cfi_startproc
  75              		@ args = 0, pretend = 0, frame = 0
  76              		@ frame_needed = 0, uses_anonymous_args = 0
  77              	.LVL3:
  78 0000 10B5     		push	{r4, lr}
  79              		.cfi_def_cfa_offset 8
  80              		.cfi_offset 4, -8
  81              		.cfi_offset 14, -4
 379:Generated_Source\PSoC5/LCD.c ****     /* Reset RW for write operation */
  82              		.loc 1 379 0
ARM GAS  C:\Users\thetr\AppData\Local\Temp\ccZuAcPl.s 			page 10


  83 0002 0D4C     		ldr	r4, .L7
  84 0004 2378     		ldrb	r3, [r4]	@ zero_extendqisi2
  85 0006 43F02003 		orr	r3, r3, #32
  86 000a 2370     		strb	r3, [r4]
 381:Generated_Source\PSoC5/LCD.c **** 
  87              		.loc 1 381 0
  88 000c 2378     		ldrb	r3, [r4]	@ zero_extendqisi2
  89 000e 03F0BF03 		and	r3, r3, #191
  90 0012 2370     		strb	r3, [r4]
 385:Generated_Source\PSoC5/LCD.c **** 
  91              		.loc 1 385 0
  92 0014 2378     		ldrb	r3, [r4]	@ zero_extendqisi2
  93 0016 03F0F003 		and	r3, r3, #240
  94 001a 2370     		strb	r3, [r4]
 388:Generated_Source\PSoC5/LCD.c **** 
  95              		.loc 1 388 0
  96 001c 2378     		ldrb	r3, [r4]	@ zero_extendqisi2
  97 001e 1843     		orrs	r0, r0, r3
  98              	.LVL4:
  99 0020 40F01000 		orr	r0, r0, #16
 100 0024 2070     		strb	r0, [r4]
 391:Generated_Source\PSoC5/LCD.c **** 
 101              		.loc 1 391 0
 102 0026 0120     		movs	r0, #1
 103 0028 FFF7FEFF 		bl	CyDelayUs
 104              	.LVL5:
 393:Generated_Source\PSoC5/LCD.c **** 	
 105              		.loc 1 393 0
 106 002c 2378     		ldrb	r3, [r4]	@ zero_extendqisi2
 107 002e 03F0EF03 		and	r3, r3, #239
 108 0032 2370     		strb	r3, [r4]
 109 0034 10BD     		pop	{r4, pc}
 110              	.L8:
 111 0036 00BF     		.align	2
 112              	.L7:
 113 0038 79640040 		.word	1073767545
 114              		.cfi_endproc
 115              	.LFE10:
 116              		.size	LCD_WrDatNib, .-LCD_WrDatNib
 117              		.section	.text.LCD_WriteData,"ax",%progbits
 118              		.align	2
 119              		.global	LCD_WriteData
 120              		.thumb
 121              		.thumb_func
 122              		.type	LCD_WriteData, %function
 123              	LCD_WriteData:
 124              	.LFB7:
 285:Generated_Source\PSoC5/LCD.c ****     uint8 nibble;
 125              		.loc 1 285 0
 126              		.cfi_startproc
 127              		@ args = 0, pretend = 0, frame = 0
 128              		@ frame_needed = 0, uses_anonymous_args = 0
 129              	.LVL6:
 130 0000 10B5     		push	{r4, lr}
 131              		.cfi_def_cfa_offset 8
 132              		.cfi_offset 4, -8
 133              		.cfi_offset 14, -4
ARM GAS  C:\Users\thetr\AppData\Local\Temp\ccZuAcPl.s 			page 11


 134 0002 0446     		mov	r4, r0
 135              	.LVL7:
 290:Generated_Source\PSoC5/LCD.c **** 
 136              		.loc 1 290 0
 137 0004 0009     		lsrs	r0, r0, #4
 138              	.LVL8:
 139 0006 FFF7FEFF 		bl	LCD_WrDatNib
 140              	.LVL9:
 292:Generated_Source\PSoC5/LCD.c **** 	 
 141              		.loc 1 292 0
 142 000a 6420     		movs	r0, #100
 143 000c FFF7FEFF 		bl	CyDelayUs
 144              	.LVL10:
 296:Generated_Source\PSoC5/LCD.c **** 	
 145              		.loc 1 296 0
 146 0010 04F00F00 		and	r0, r4, #15
 147 0014 FFF7FEFF 		bl	LCD_WrDatNib
 148              	.LVL11:
 298:Generated_Source\PSoC5/LCD.c **** 
 149              		.loc 1 298 0
 150 0018 9620     		movs	r0, #150
 151 001a FFF7FEFF 		bl	CyDelayUs
 152              	.LVL12:
 153 001e 10BD     		pop	{r4, pc}
 154              		.cfi_endproc
 155              	.LFE7:
 156              		.size	LCD_WriteData, .-LCD_WriteData
 157              		.section	.text.LCD_PrintString,"ax",%progbits
 158              		.align	2
 159              		.global	LCD_PrintString
 160              		.thumb
 161              		.thumb_func
 162              		.type	LCD_PrintString, %function
 163              	LCD_PrintString:
 164              	.LFB5:
 234:Generated_Source\PSoC5/LCD.c ****     uint8 indexU8 = 1u;
 165              		.loc 1 234 0
 166              		.cfi_startproc
 167              		@ args = 0, pretend = 0, frame = 0
 168              		@ frame_needed = 0, uses_anonymous_args = 0
 169              	.LVL13:
 170 0000 38B5     		push	{r3, r4, r5, lr}
 171              		.cfi_def_cfa_offset 16
 172              		.cfi_offset 3, -16
 173              		.cfi_offset 4, -12
 174              		.cfi_offset 5, -8
 175              		.cfi_offset 14, -4
 176 0002 0546     		mov	r5, r0
 177              	.LVL14:
 236:Generated_Source\PSoC5/LCD.c **** 
 178              		.loc 1 236 0
 179 0004 0078     		ldrb	r0, [r0]	@ zero_extendqisi2
 180              	.LVL15:
 235:Generated_Source\PSoC5/LCD.c ****     char8 current = *string;
 181              		.loc 1 235 0
 182 0006 0124     		movs	r4, #1
 239:Generated_Source\PSoC5/LCD.c ****     {
ARM GAS  C:\Users\thetr\AppData\Local\Temp\ccZuAcPl.s 			page 12


 183              		.loc 1 239 0
 184 0008 04E0     		b	.L12
 185              	.LVL16:
 186              	.L13:
 241:Generated_Source\PSoC5/LCD.c ****         current = string[indexU8];
 187              		.loc 1 241 0
 188 000a FFF7FEFF 		bl	LCD_WriteData
 189              	.LVL17:
 242:Generated_Source\PSoC5/LCD.c ****         indexU8++;
 190              		.loc 1 242 0
 191 000e 285D     		ldrb	r0, [r5, r4]	@ zero_extendqisi2
 192              	.LVL18:
 243:Generated_Source\PSoC5/LCD.c ****     }
 193              		.loc 1 243 0
 194 0010 0134     		adds	r4, r4, #1
 195              	.LVL19:
 196 0012 E4B2     		uxtb	r4, r4
 197              	.LVL20:
 198              	.L12:
 239:Generated_Source\PSoC5/LCD.c ****     {
 199              		.loc 1 239 0
 200 0014 0028     		cmp	r0, #0
 201 0016 F8D1     		bne	.L13
 245:Generated_Source\PSoC5/LCD.c **** 
 202              		.loc 1 245 0
 203 0018 38BD     		pop	{r3, r4, r5, pc}
 204              		.cfi_endproc
 205              	.LFE5:
 206              		.size	LCD_PrintString, .-LCD_PrintString
 207 001a 00BF     		.section	.text.LCD_PutChar,"ax",%progbits
 208              		.align	2
 209              		.global	LCD_PutChar
 210              		.thumb
 211              		.thumb_func
 212              		.type	LCD_PutChar, %function
 213              	LCD_PutChar:
 214              	.LFB6:
 265:Generated_Source\PSoC5/LCD.c ****     LCD_WriteData((uint8)character);
 215              		.loc 1 265 0
 216              		.cfi_startproc
 217              		@ args = 0, pretend = 0, frame = 0
 218              		@ frame_needed = 0, uses_anonymous_args = 0
 219              	.LVL21:
 220 0000 08B5     		push	{r3, lr}
 221              		.cfi_def_cfa_offset 8
 222              		.cfi_offset 3, -8
 223              		.cfi_offset 14, -4
 266:Generated_Source\PSoC5/LCD.c **** }
 224              		.loc 1 266 0
 225 0002 FFF7FEFF 		bl	LCD_WriteData
 226              	.LVL22:
 227 0006 08BD     		pop	{r3, pc}
 228              		.cfi_endproc
 229              	.LFE6:
 230              		.size	LCD_PutChar, .-LCD_PutChar
 231              		.section	.text.LCD_WriteControl,"ax",%progbits
 232              		.align	2
ARM GAS  C:\Users\thetr\AppData\Local\Temp\ccZuAcPl.s 			page 13


 233              		.global	LCD_WriteControl
 234              		.thumb
 235              		.thumb_func
 236              		.type	LCD_WriteControl, %function
 237              	LCD_WriteControl:
 238              	.LFB8:
 318:Generated_Source\PSoC5/LCD.c ****     uint8 nibble;
 239              		.loc 1 318 0
 240              		.cfi_startproc
 241              		@ args = 0, pretend = 0, frame = 0
 242              		@ frame_needed = 0, uses_anonymous_args = 0
 243              	.LVL23:
 244 0000 10B5     		push	{r4, lr}
 245              		.cfi_def_cfa_offset 8
 246              		.cfi_offset 4, -8
 247              		.cfi_offset 14, -4
 248 0002 0446     		mov	r4, r0
 249              	.LVL24:
 323:Generated_Source\PSoC5/LCD.c **** 
 250              		.loc 1 323 0
 251 0004 0009     		lsrs	r0, r0, #4
 252              	.LVL25:
 253 0006 FFF7FEFF 		bl	LCD_WrCntrlNib
 254              	.LVL26:
 325:Generated_Source\PSoC5/LCD.c **** 	
 255              		.loc 1 325 0
 256 000a 6420     		movs	r0, #100
 257 000c FFF7FEFF 		bl	CyDelayUs
 258              	.LVL27:
 329:Generated_Source\PSoC5/LCD.c **** 
 259              		.loc 1 329 0
 260 0010 04F00F00 		and	r0, r4, #15
 261 0014 FFF7FEFF 		bl	LCD_WrCntrlNib
 262              	.LVL28:
 331:Generated_Source\PSoC5/LCD.c **** }
 263              		.loc 1 331 0
 264 0018 40F6C410 		movw	r0, #2500
 265 001c FFF7FEFF 		bl	CyDelayUs
 266              	.LVL29:
 267 0020 10BD     		pop	{r4, pc}
 268              		.cfi_endproc
 269              	.LFE8:
 270              		.size	LCD_WriteControl, .-LCD_WriteControl
 271 0022 00BF     		.section	.text.LCD_Init,"ax",%progbits
 272              		.align	2
 273              		.global	LCD_Init
 274              		.thumb
 275              		.thumb_func
 276              		.type	LCD_Init, %function
 277              	LCD_Init:
 278              	.LFB0:
  56:Generated_Source\PSoC5/LCD.c ****     /* INIT CODE */
 279              		.loc 1 56 0
 280              		.cfi_startproc
 281              		@ args = 0, pretend = 0, frame = 0
 282              		@ frame_needed = 0, uses_anonymous_args = 0
 283 0000 08B5     		push	{r3, lr}
ARM GAS  C:\Users\thetr\AppData\Local\Temp\ccZuAcPl.s 			page 14


 284              		.cfi_def_cfa_offset 8
 285              		.cfi_offset 3, -8
 286              		.cfi_offset 14, -4
  58:Generated_Source\PSoC5/LCD.c ****     LCD_WrCntrlNib(LCD_DISPLAY_8_BIT_INIT);   /* Selects 8-bit mode */
 287              		.loc 1 58 0
 288 0002 2820     		movs	r0, #40
 289 0004 FFF7FEFF 		bl	CyDelay
 290              	.LVL30:
  59:Generated_Source\PSoC5/LCD.c ****     CyDelay(5u);                                                         /* Delay 5 ms */
 291              		.loc 1 59 0
 292 0008 0320     		movs	r0, #3
 293 000a FFF7FEFF 		bl	LCD_WrCntrlNib
 294              	.LVL31:
  60:Generated_Source\PSoC5/LCD.c ****     LCD_WrCntrlNib(LCD_DISPLAY_8_BIT_INIT);   /* Selects 8-bit mode */
 295              		.loc 1 60 0
 296 000e 0520     		movs	r0, #5
 297 0010 FFF7FEFF 		bl	CyDelay
 298              	.LVL32:
  61:Generated_Source\PSoC5/LCD.c ****     CyDelay(15u);                                                        /* Delay 15 ms */
 299              		.loc 1 61 0
 300 0014 0320     		movs	r0, #3
 301 0016 FFF7FEFF 		bl	LCD_WrCntrlNib
 302              	.LVL33:
  62:Generated_Source\PSoC5/LCD.c ****     LCD_WrCntrlNib(LCD_DISPLAY_8_BIT_INIT);   /* Selects 8-bit mode */
 303              		.loc 1 62 0
 304 001a 0F20     		movs	r0, #15
 305 001c FFF7FEFF 		bl	CyDelay
 306              	.LVL34:
  63:Generated_Source\PSoC5/LCD.c ****     CyDelay(1u);                                                         /* Delay 1 ms */
 307              		.loc 1 63 0
 308 0020 0320     		movs	r0, #3
 309 0022 FFF7FEFF 		bl	LCD_WrCntrlNib
 310              	.LVL35:
  64:Generated_Source\PSoC5/LCD.c ****     LCD_WrCntrlNib(LCD_DISPLAY_4_BIT_INIT);   /* Selects 4-bit mode */
 311              		.loc 1 64 0
 312 0026 0120     		movs	r0, #1
 313 0028 FFF7FEFF 		bl	CyDelay
 314              	.LVL36:
  65:Generated_Source\PSoC5/LCD.c ****     CyDelay(5u);                                                         /* Delay 5 ms */
 315              		.loc 1 65 0
 316 002c 0220     		movs	r0, #2
 317 002e FFF7FEFF 		bl	LCD_WrCntrlNib
 318              	.LVL37:
  66:Generated_Source\PSoC5/LCD.c **** 
 319              		.loc 1 66 0
 320 0032 0520     		movs	r0, #5
 321 0034 FFF7FEFF 		bl	CyDelay
 322              	.LVL38:
  68:Generated_Source\PSoC5/LCD.c ****     LCD_WriteControl(LCD_DISPLAY_CURSOR_ON);      /* Turn Display, Cursor ON */
 323              		.loc 1 68 0
 324 0038 0620     		movs	r0, #6
 325 003a FFF7FEFF 		bl	LCD_WriteControl
 326              	.LVL39:
  69:Generated_Source\PSoC5/LCD.c ****     LCD_WriteControl(LCD_DISPLAY_2_LINES_5x10);   /* 2 Lines by 5x10 Characters */
 327              		.loc 1 69 0
 328 003e 0E20     		movs	r0, #14
 329 0040 FFF7FEFF 		bl	LCD_WriteControl
ARM GAS  C:\Users\thetr\AppData\Local\Temp\ccZuAcPl.s 			page 15


 330              	.LVL40:
  70:Generated_Source\PSoC5/LCD.c ****     LCD_WriteControl(LCD_DISPLAY_CURSOR_OFF);     /* Turn Display, Cursor OFF */
 331              		.loc 1 70 0
 332 0044 2C20     		movs	r0, #44
 333 0046 FFF7FEFF 		bl	LCD_WriteControl
 334              	.LVL41:
  71:Generated_Source\PSoC5/LCD.c ****     LCD_WriteControl(LCD_CLEAR_DISPLAY);          /* Clear LCD Screen */
 335              		.loc 1 71 0
 336 004a 0820     		movs	r0, #8
 337 004c FFF7FEFF 		bl	LCD_WriteControl
 338              	.LVL42:
  72:Generated_Source\PSoC5/LCD.c ****     LCD_WriteControl(LCD_DISPLAY_ON_CURSOR_OFF);  /* Turn Display ON, Cursor OFF */
 339              		.loc 1 72 0
 340 0050 0120     		movs	r0, #1
 341 0052 FFF7FEFF 		bl	LCD_WriteControl
 342              	.LVL43:
  73:Generated_Source\PSoC5/LCD.c ****     LCD_WriteControl(LCD_RESET_CURSOR_POSITION);  /* Set Cursor to 0,0 */
 343              		.loc 1 73 0
 344 0056 0C20     		movs	r0, #12
 345 0058 FFF7FEFF 		bl	LCD_WriteControl
 346              	.LVL44:
  74:Generated_Source\PSoC5/LCD.c ****     CyDelay(5u);
 347              		.loc 1 74 0
 348 005c 0320     		movs	r0, #3
 349 005e FFF7FEFF 		bl	LCD_WriteControl
 350              	.LVL45:
  75:Generated_Source\PSoC5/LCD.c **** 
 351              		.loc 1 75 0
 352 0062 0520     		movs	r0, #5
 353 0064 FFF7FEFF 		bl	CyDelay
 354              	.LVL46:
 355 0068 08BD     		pop	{r3, pc}
 356              		.cfi_endproc
 357              	.LFE0:
 358              		.size	LCD_Init, .-LCD_Init
 359 006a 00BF     		.section	.text.LCD_Enable,"ax",%progbits
 360              		.align	2
 361              		.global	LCD_Enable
 362              		.thumb
 363              		.thumb_func
 364              		.type	LCD_Enable, %function
 365              	LCD_Enable:
 366              	.LFB1:
 105:Generated_Source\PSoC5/LCD.c ****     LCD_DisplayOn();
 367              		.loc 1 105 0
 368              		.cfi_startproc
 369              		@ args = 0, pretend = 0, frame = 0
 370              		@ frame_needed = 0, uses_anonymous_args = 0
 371 0000 08B5     		push	{r3, lr}
 372              		.cfi_def_cfa_offset 8
 373              		.cfi_offset 3, -8
 374              		.cfi_offset 14, -4
 106:Generated_Source\PSoC5/LCD.c ****     LCD_enableState = 1u;
 375              		.loc 1 106 0
 376 0002 0C20     		movs	r0, #12
 377 0004 FFF7FEFF 		bl	LCD_WriteControl
 378              	.LVL47:
ARM GAS  C:\Users\thetr\AppData\Local\Temp\ccZuAcPl.s 			page 16


 107:Generated_Source\PSoC5/LCD.c **** }
 379              		.loc 1 107 0
 380 0008 0122     		movs	r2, #1
 381 000a 014B     		ldr	r3, .L23
 382 000c 1A70     		strb	r2, [r3]
 383 000e 08BD     		pop	{r3, pc}
 384              	.L24:
 385              		.align	2
 386              	.L23:
 387 0010 00000000 		.word	.LANCHOR0
 388              		.cfi_endproc
 389              	.LFE1:
 390              		.size	LCD_Enable, .-LCD_Enable
 391              		.section	.text.LCD_Start,"ax",%progbits
 392              		.align	2
 393              		.global	LCD_Start
 394              		.thumb
 395              		.thumb_func
 396              		.type	LCD_Start, %function
 397              	LCD_Start:
 398              	.LFB2:
 138:Generated_Source\PSoC5/LCD.c ****     /* If not initialized then perform initialization */
 399              		.loc 1 138 0
 400              		.cfi_startproc
 401              		@ args = 0, pretend = 0, frame = 0
 402              		@ frame_needed = 0, uses_anonymous_args = 0
 403 0000 08B5     		push	{r3, lr}
 404              		.cfi_def_cfa_offset 8
 405              		.cfi_offset 3, -8
 406              		.cfi_offset 14, -4
 140:Generated_Source\PSoC5/LCD.c ****     {
 407              		.loc 1 140 0
 408 0002 054B     		ldr	r3, .L28
 409 0004 5B78     		ldrb	r3, [r3, #1]	@ zero_extendqisi2
 410 0006 23B9     		cbnz	r3, .L26
 142:Generated_Source\PSoC5/LCD.c ****         LCD_initVar = 1u;
 411              		.loc 1 142 0
 412 0008 FFF7FEFF 		bl	LCD_Init
 413              	.LVL48:
 143:Generated_Source\PSoC5/LCD.c ****     }
 414              		.loc 1 143 0
 415 000c 0122     		movs	r2, #1
 416 000e 024B     		ldr	r3, .L28
 417 0010 5A70     		strb	r2, [r3, #1]
 418              	.L26:
 147:Generated_Source\PSoC5/LCD.c **** }
 419              		.loc 1 147 0
 420 0012 FFF7FEFF 		bl	LCD_Enable
 421              	.LVL49:
 422 0016 08BD     		pop	{r3, pc}
 423              	.L29:
 424              		.align	2
 425              	.L28:
 426 0018 00000000 		.word	.LANCHOR0
 427              		.cfi_endproc
 428              	.LFE2:
 429              		.size	LCD_Start, .-LCD_Start
ARM GAS  C:\Users\thetr\AppData\Local\Temp\ccZuAcPl.s 			page 17


 430              		.section	.text.LCD_Stop,"ax",%progbits
 431              		.align	2
 432              		.global	LCD_Stop
 433              		.thumb
 434              		.thumb_func
 435              		.type	LCD_Stop, %function
 436              	LCD_Stop:
 437              	.LFB3:
 169:Generated_Source\PSoC5/LCD.c ****     /* Calls LCD Off Macro */
 438              		.loc 1 169 0
 439              		.cfi_startproc
 440              		@ args = 0, pretend = 0, frame = 0
 441              		@ frame_needed = 0, uses_anonymous_args = 0
 442 0000 08B5     		push	{r3, lr}
 443              		.cfi_def_cfa_offset 8
 444              		.cfi_offset 3, -8
 445              		.cfi_offset 14, -4
 171:Generated_Source\PSoC5/LCD.c ****     LCD_enableState = 0u;
 446              		.loc 1 171 0
 447 0002 0820     		movs	r0, #8
 448 0004 FFF7FEFF 		bl	LCD_WriteControl
 449              	.LVL50:
 172:Generated_Source\PSoC5/LCD.c **** }
 450              		.loc 1 172 0
 451 0008 0022     		movs	r2, #0
 452 000a 014B     		ldr	r3, .L32
 453 000c 1A70     		strb	r2, [r3]
 454 000e 08BD     		pop	{r3, pc}
 455              	.L33:
 456              		.align	2
 457              	.L32:
 458 0010 00000000 		.word	.LANCHOR0
 459              		.cfi_endproc
 460              	.LFE3:
 461              		.size	LCD_Stop, .-LCD_Stop
 462              		.section	.text.LCD_Position,"ax",%progbits
 463              		.align	2
 464              		.global	LCD_Position
 465              		.thumb
 466              		.thumb_func
 467              		.type	LCD_Position, %function
 468              	LCD_Position:
 469              	.LFB4:
 197:Generated_Source\PSoC5/LCD.c ****     switch (row)
 470              		.loc 1 197 0
 471              		.cfi_startproc
 472              		@ args = 0, pretend = 0, frame = 0
 473              		@ frame_needed = 0, uses_anonymous_args = 0
 474              	.LVL51:
 475 0000 08B5     		push	{r3, lr}
 476              		.cfi_def_cfa_offset 8
 477              		.cfi_offset 3, -8
 478              		.cfi_offset 14, -4
 198:Generated_Source\PSoC5/LCD.c ****     {
 479              		.loc 1 198 0
 480 0002 0328     		cmp	r0, #3
 481 0004 19D8     		bhi	.L34
ARM GAS  C:\Users\thetr\AppData\Local\Temp\ccZuAcPl.s 			page 18


 482 0006 DFE800F0 		tbb	[pc, r0]
 483              	.L37:
 484 000a 02       		.byte	(.L36-.L37)/2
 485 000b 07       		.byte	(.L38-.L37)/2
 486 000c 0D       		.byte	(.L39-.L37)/2
 487 000d 13       		.byte	(.L40-.L37)/2
 488              		.p2align 1
 489              	.L36:
 201:Generated_Source\PSoC5/LCD.c ****             break;
 490              		.loc 1 201 0
 491 000e 81F08000 		eor	r0, r1, #128
 492              	.LVL52:
 493 0012 FFF7FEFF 		bl	LCD_WriteControl
 494              	.LVL53:
 202:Generated_Source\PSoC5/LCD.c ****         case (uint8) 1:
 495              		.loc 1 202 0
 496 0016 08BD     		pop	{r3, pc}
 497              	.LVL54:
 498              	.L38:
 204:Generated_Source\PSoC5/LCD.c ****             break;
 499              		.loc 1 204 0
 500 0018 A1F14000 		sub	r0, r1, #64
 501              	.LVL55:
 502 001c C0B2     		uxtb	r0, r0
 503 001e FFF7FEFF 		bl	LCD_WriteControl
 504              	.LVL56:
 205:Generated_Source\PSoC5/LCD.c ****         case (uint8) 2:
 505              		.loc 1 205 0
 506 0022 08BD     		pop	{r3, pc}
 507              	.LVL57:
 508              	.L39:
 207:Generated_Source\PSoC5/LCD.c ****             break;
 509              		.loc 1 207 0
 510 0024 A1F16C00 		sub	r0, r1, #108
 511              	.LVL58:
 512 0028 C0B2     		uxtb	r0, r0
 513 002a FFF7FEFF 		bl	LCD_WriteControl
 514              	.LVL59:
 208:Generated_Source\PSoC5/LCD.c ****         case (uint8) 3:
 515              		.loc 1 208 0
 516 002e 08BD     		pop	{r3, pc}
 517              	.LVL60:
 518              	.L40:
 210:Generated_Source\PSoC5/LCD.c ****             break;
 519              		.loc 1 210 0
 520 0030 A1F12C00 		sub	r0, r1, #44
 521              	.LVL61:
 522 0034 C0B2     		uxtb	r0, r0
 523 0036 FFF7FEFF 		bl	LCD_WriteControl
 524              	.LVL62:
 525              	.L34:
 526 003a 08BD     		pop	{r3, pc}
 527              		.cfi_endproc
 528              	.LFE4:
 529              		.size	LCD_Position, .-LCD_Position
 530              		.section	.text.LCD_IsReady,"ax",%progbits
 531              		.align	2
ARM GAS  C:\Users\thetr\AppData\Local\Temp\ccZuAcPl.s 			page 19


 532              		.global	LCD_IsReady
 533              		.thumb
 534              		.thumb_func
 535              		.type	LCD_IsReady, %function
 536              	LCD_IsReady:
 537              	.LFB9:
 353:Generated_Source\PSoC5/LCD.c ****    
 538              		.loc 1 353 0
 539              		.cfi_startproc
 540              		@ args = 0, pretend = 0, frame = 0
 541              		@ frame_needed = 0, uses_anonymous_args = 0
 542 0000 08B5     		push	{r3, lr}
 543              		.cfi_def_cfa_offset 8
 544              		.cfi_offset 3, -8
 545              		.cfi_offset 14, -4
 355:Generated_Source\PSoC5/LCD.c **** 	
 546              		.loc 1 355 0
 547 0002 0120     		movs	r0, #1
 548 0004 FFF7FEFF 		bl	CyDelay
 549              	.LVL63:
 550 0008 08BD     		pop	{r3, pc}
 551              		.cfi_endproc
 552              	.LFE9:
 553              		.size	LCD_IsReady, .-LCD_IsReady
 554 000a 00BF     		.section	.text.LCD_PrintInt8,"ax",%progbits
 555              		.align	2
 556              		.global	LCD_PrintInt8
 557              		.thumb
 558              		.thumb_func
 559              		.type	LCD_PrintInt8, %function
 560              	LCD_PrintInt8:
 561              	.LFB12:
 430:Generated_Source\PSoC5/LCD.c **** }
 431:Generated_Source\PSoC5/LCD.c **** 
 432:Generated_Source\PSoC5/LCD.c **** 
 433:Generated_Source\PSoC5/LCD.c **** #if(LCD_CONVERSION_ROUTINES == 1u)
 434:Generated_Source\PSoC5/LCD.c **** 
 435:Generated_Source\PSoC5/LCD.c ****     /*******************************************************************************
 436:Generated_Source\PSoC5/LCD.c ****     *  Function Name: LCD_PrintInt8
 437:Generated_Source\PSoC5/LCD.c ****     ********************************************************************************
 438:Generated_Source\PSoC5/LCD.c ****     *
 439:Generated_Source\PSoC5/LCD.c ****     * Summary:
 440:Generated_Source\PSoC5/LCD.c ****     *  Print a byte as two ASCII characters.
 441:Generated_Source\PSoC5/LCD.c ****     *
 442:Generated_Source\PSoC5/LCD.c ****     * Parameters:
 443:Generated_Source\PSoC5/LCD.c ****     *  value:  The byte to be printed out as ASCII characters.
 444:Generated_Source\PSoC5/LCD.c ****     *
 445:Generated_Source\PSoC5/LCD.c ****     * Return:
 446:Generated_Source\PSoC5/LCD.c ****     *  None.
 447:Generated_Source\PSoC5/LCD.c ****     *
 448:Generated_Source\PSoC5/LCD.c ****     *******************************************************************************/
 449:Generated_Source\PSoC5/LCD.c ****     void LCD_PrintInt8(uint8 value) 
 450:Generated_Source\PSoC5/LCD.c ****     {
 562              		.loc 1 450 0
 563              		.cfi_startproc
 564              		@ args = 0, pretend = 0, frame = 0
 565              		@ frame_needed = 0, uses_anonymous_args = 0
ARM GAS  C:\Users\thetr\AppData\Local\Temp\ccZuAcPl.s 			page 20


 566              	.LVL64:
 567 0000 38B5     		push	{r3, r4, r5, lr}
 568              		.cfi_def_cfa_offset 16
 569              		.cfi_offset 3, -16
 570              		.cfi_offset 4, -12
 571              		.cfi_offset 5, -8
 572              		.cfi_offset 14, -4
 573 0002 0446     		mov	r4, r0
 451:Generated_Source\PSoC5/LCD.c ****         static char8 const CYCODE LCD_hex[16u] = "0123456789ABCDEF";
 452:Generated_Source\PSoC5/LCD.c ****         
 453:Generated_Source\PSoC5/LCD.c ****         LCD_PutChar((char8) LCD_hex[value >> LCD_BYTE_UPPER_NIBBLE_SHIFT]);
 574              		.loc 1 453 0
 575 0004 0309     		lsrs	r3, r0, #4
 576 0006 054D     		ldr	r5, .L46
 577 0008 E85C     		ldrb	r0, [r5, r3]	@ zero_extendqisi2
 578              	.LVL65:
 579 000a FFF7FEFF 		bl	LCD_PutChar
 580              	.LVL66:
 454:Generated_Source\PSoC5/LCD.c ****         LCD_PutChar((char8) LCD_hex[value & LCD_BYTE_LOWER_NIBBLE_MASK]);
 581              		.loc 1 454 0
 582 000e 04F00F04 		and	r4, r4, #15
 583 0012 285D     		ldrb	r0, [r5, r4]	@ zero_extendqisi2
 584 0014 FFF7FEFF 		bl	LCD_PutChar
 585              	.LVL67:
 586 0018 38BD     		pop	{r3, r4, r5, pc}
 587              	.L47:
 588 001a 00BF     		.align	2
 589              	.L46:
 590 001c 00000000 		.word	.LANCHOR1
 591              		.cfi_endproc
 592              	.LFE12:
 593              		.size	LCD_PrintInt8, .-LCD_PrintInt8
 594              		.section	.text.LCD_PrintInt16,"ax",%progbits
 595              		.align	2
 596              		.global	LCD_PrintInt16
 597              		.thumb
 598              		.thumb_func
 599              		.type	LCD_PrintInt16, %function
 600              	LCD_PrintInt16:
 601              	.LFB13:
 455:Generated_Source\PSoC5/LCD.c ****     }
 456:Generated_Source\PSoC5/LCD.c **** 
 457:Generated_Source\PSoC5/LCD.c **** 
 458:Generated_Source\PSoC5/LCD.c ****     /*******************************************************************************
 459:Generated_Source\PSoC5/LCD.c ****     *  Function Name: LCD_PrintInt16
 460:Generated_Source\PSoC5/LCD.c ****     ********************************************************************************
 461:Generated_Source\PSoC5/LCD.c ****     *
 462:Generated_Source\PSoC5/LCD.c ****     * Summary:
 463:Generated_Source\PSoC5/LCD.c ****     *  Print a uint16 as four ASCII characters.
 464:Generated_Source\PSoC5/LCD.c ****     *
 465:Generated_Source\PSoC5/LCD.c ****     * Parameters:
 466:Generated_Source\PSoC5/LCD.c ****     *  value:   The uint16 to be printed out as ASCII characters.
 467:Generated_Source\PSoC5/LCD.c ****     *
 468:Generated_Source\PSoC5/LCD.c ****     * Return:
 469:Generated_Source\PSoC5/LCD.c ****     *  None.
 470:Generated_Source\PSoC5/LCD.c ****     *
 471:Generated_Source\PSoC5/LCD.c ****     *******************************************************************************/
ARM GAS  C:\Users\thetr\AppData\Local\Temp\ccZuAcPl.s 			page 21


 472:Generated_Source\PSoC5/LCD.c ****     void LCD_PrintInt16(uint16 value) 
 473:Generated_Source\PSoC5/LCD.c ****     {
 602              		.loc 1 473 0
 603              		.cfi_startproc
 604              		@ args = 0, pretend = 0, frame = 0
 605              		@ frame_needed = 0, uses_anonymous_args = 0
 606              	.LVL68:
 607 0000 10B5     		push	{r4, lr}
 608              		.cfi_def_cfa_offset 8
 609              		.cfi_offset 4, -8
 610              		.cfi_offset 14, -4
 611 0002 0446     		mov	r4, r0
 474:Generated_Source\PSoC5/LCD.c ****         LCD_PrintInt8((uint8)(value >> LCD_U16_UPPER_BYTE_SHIFT));
 612              		.loc 1 474 0
 613 0004 000A     		lsrs	r0, r0, #8
 614              	.LVL69:
 615 0006 FFF7FEFF 		bl	LCD_PrintInt8
 616              	.LVL70:
 475:Generated_Source\PSoC5/LCD.c ****         LCD_PrintInt8((uint8)(value & LCD_U16_LOWER_BYTE_MASK));
 617              		.loc 1 475 0
 618 000a E0B2     		uxtb	r0, r4
 619 000c FFF7FEFF 		bl	LCD_PrintInt8
 620              	.LVL71:
 621 0010 10BD     		pop	{r4, pc}
 622              		.cfi_endproc
 623              	.LFE13:
 624              		.size	LCD_PrintInt16, .-LCD_PrintInt16
 625 0012 00BF     		.section	.text.LCD_PrintNumber,"ax",%progbits
 626              		.align	2
 627              		.global	LCD_PrintNumber
 628              		.thumb
 629              		.thumb_func
 630              		.type	LCD_PrintNumber, %function
 631              	LCD_PrintNumber:
 632              	.LFB14:
 476:Generated_Source\PSoC5/LCD.c ****     }
 477:Generated_Source\PSoC5/LCD.c **** 
 478:Generated_Source\PSoC5/LCD.c **** 
 479:Generated_Source\PSoC5/LCD.c ****     /*******************************************************************************
 480:Generated_Source\PSoC5/LCD.c ****     *  Function Name: LCD_PrintNumber
 481:Generated_Source\PSoC5/LCD.c ****     ********************************************************************************
 482:Generated_Source\PSoC5/LCD.c ****     *
 483:Generated_Source\PSoC5/LCD.c ****     * Summary:
 484:Generated_Source\PSoC5/LCD.c ****     *  Print an uint32 value as a left-justified decimal value.
 485:Generated_Source\PSoC5/LCD.c ****     *
 486:Generated_Source\PSoC5/LCD.c ****     * Parameters:
 487:Generated_Source\PSoC5/LCD.c ****     *  value:  The byte to be printed out as ASCII characters.
 488:Generated_Source\PSoC5/LCD.c ****     *
 489:Generated_Source\PSoC5/LCD.c ****     * Return:
 490:Generated_Source\PSoC5/LCD.c ****     *  None.
 491:Generated_Source\PSoC5/LCD.c ****     *
 492:Generated_Source\PSoC5/LCD.c ****     *******************************************************************************/
 493:Generated_Source\PSoC5/LCD.c ****     void LCD_PrintNumber(uint16 value) 
 494:Generated_Source\PSoC5/LCD.c ****     {
 633              		.loc 1 494 0
 634              		.cfi_startproc
 635              		@ args = 0, pretend = 0, frame = 16
ARM GAS  C:\Users\thetr\AppData\Local\Temp\ccZuAcPl.s 			page 22


 636              		@ frame_needed = 0, uses_anonymous_args = 0
 637              	.LVL72:
 638 0000 10B5     		push	{r4, lr}
 639              		.cfi_def_cfa_offset 8
 640              		.cfi_offset 4, -8
 641              		.cfi_offset 14, -4
 642 0002 84B0     		sub	sp, sp, #16
 643              		.cfi_def_cfa_offset 24
 644              	.LVL73:
 495:Generated_Source\PSoC5/LCD.c **** 
 496:Generated_Source\PSoC5/LCD.c ****         char8 number[LCD_NUMBER_OF_REMAINDERS];
 497:Generated_Source\PSoC5/LCD.c ****         char8 temp[LCD_NUMBER_OF_REMAINDERS];
 498:Generated_Source\PSoC5/LCD.c **** 
 499:Generated_Source\PSoC5/LCD.c ****         uint8 digIndex = 0u;
 645              		.loc 1 499 0
 646 0004 0023     		movs	r3, #0
 500:Generated_Source\PSoC5/LCD.c ****         uint8 numDigits;
 501:Generated_Source\PSoC5/LCD.c **** 
 502:Generated_Source\PSoC5/LCD.c ****         /* Load these in reverse order */
 503:Generated_Source\PSoC5/LCD.c ****         while(value >= LCD_TEN)
 647              		.loc 1 503 0
 648 0006 0FE0     		b	.L51
 649              	.LVL74:
 650              	.L52:
 504:Generated_Source\PSoC5/LCD.c ****         {
 505:Generated_Source\PSoC5/LCD.c ****             temp[digIndex] = (value % LCD_TEN) + '0';
 651              		.loc 1 505 0
 652 0008 04AA     		add	r2, sp, #16
 653 000a D418     		adds	r4, r2, r3
 654 000c 1E4A     		ldr	r2, .L56
 655 000e A2FB0012 		umull	r1, r2, r2, r0
 656 0012 D208     		lsrs	r2, r2, #3
 657 0014 02EB8201 		add	r1, r2, r2, lsl #2
 658 0018 4900     		lsls	r1, r1, #1
 659 001a 401A     		subs	r0, r0, r1
 660              	.LVL75:
 661 001c 3030     		adds	r0, r0, #48
 662 001e 04F8100C 		strb	r0, [r4, #-16]
 506:Generated_Source\PSoC5/LCD.c ****             value /= LCD_TEN;
 663              		.loc 1 506 0
 664 0022 90B2     		uxth	r0, r2
 665              	.LVL76:
 507:Generated_Source\PSoC5/LCD.c ****             digIndex++;
 666              		.loc 1 507 0
 667 0024 0133     		adds	r3, r3, #1
 668              	.LVL77:
 669 0026 DBB2     		uxtb	r3, r3
 670              	.LVL78:
 671              	.L51:
 503:Generated_Source\PSoC5/LCD.c ****         {
 672              		.loc 1 503 0
 673 0028 0928     		cmp	r0, #9
 674 002a EDD8     		bhi	.L52
 508:Generated_Source\PSoC5/LCD.c ****         }
 509:Generated_Source\PSoC5/LCD.c **** 
 510:Generated_Source\PSoC5/LCD.c ****         temp[digIndex] = (value % LCD_TEN) + '0';
 675              		.loc 1 510 0
ARM GAS  C:\Users\thetr\AppData\Local\Temp\ccZuAcPl.s 			page 23


 676 002c 1C46     		mov	r4, r3
 677 002e 164A     		ldr	r2, .L56
 678 0030 A2FB0012 		umull	r1, r2, r2, r0
 679 0034 D208     		lsrs	r2, r2, #3
 680 0036 02EB8202 		add	r2, r2, r2, lsl #2
 681 003a 5200     		lsls	r2, r2, #1
 682 003c 801A     		subs	r0, r0, r2
 683              	.LVL79:
 684 003e 3030     		adds	r0, r0, #48
 685 0040 04AA     		add	r2, sp, #16
 686 0042 1A44     		add	r2, r2, r3
 687 0044 02F8100C 		strb	r0, [r2, #-16]
 511:Generated_Source\PSoC5/LCD.c ****         numDigits = digIndex;
 688              		.loc 1 511 0
 689 0048 1846     		mov	r0, r3
 690              	.LVL80:
 512:Generated_Source\PSoC5/LCD.c **** 
 513:Generated_Source\PSoC5/LCD.c ****         /* While index is greater than or equal to zero copy number
 514:Generated_Source\PSoC5/LCD.c ****         * from temporary array to number[].
 515:Generated_Source\PSoC5/LCD.c ****         */
 516:Generated_Source\PSoC5/LCD.c ****         while (digIndex != 0u)
 691              		.loc 1 516 0
 692 004a 0BE0     		b	.L53
 693              	.LVL81:
 694              	.L54:
 517:Generated_Source\PSoC5/LCD.c ****         {
 518:Generated_Source\PSoC5/LCD.c ****             number[numDigits - digIndex] = temp[digIndex];
 695              		.loc 1 518 0
 696 004c E21A     		subs	r2, r4, r3
 697 004e 04A9     		add	r1, sp, #16
 698 0050 1944     		add	r1, r1, r3
 699 0052 11F8101C 		ldrb	r1, [r1, #-16]	@ zero_extendqisi2
 700 0056 0DF1100E 		add	lr, sp, #16
 701 005a 7244     		add	r2, r2, lr
 702 005c 02F8081C 		strb	r1, [r2, #-8]
 519:Generated_Source\PSoC5/LCD.c ****             digIndex--;
 703              		.loc 1 519 0
 704 0060 013B     		subs	r3, r3, #1
 705              	.LVL82:
 706 0062 DBB2     		uxtb	r3, r3
 707              	.LVL83:
 708              	.L53:
 516:Generated_Source\PSoC5/LCD.c ****         {
 709              		.loc 1 516 0
 710 0064 002B     		cmp	r3, #0
 711 0066 F1D1     		bne	.L54
 520:Generated_Source\PSoC5/LCD.c ****         }
 521:Generated_Source\PSoC5/LCD.c ****         
 522:Generated_Source\PSoC5/LCD.c ****         /* Copy last digit */
 523:Generated_Source\PSoC5/LCD.c ****         number[numDigits] = temp[0u];
 712              		.loc 1 523 0
 713 0068 9DF80030 		ldrb	r3, [sp]	@ zero_extendqisi2
 714              	.LVL84:
 715 006c 04AA     		add	r2, sp, #16
 716 006e 1444     		add	r4, r4, r2
 717 0070 04F8083C 		strb	r3, [r4, #-8]
 524:Generated_Source\PSoC5/LCD.c **** 
ARM GAS  C:\Users\thetr\AppData\Local\Temp\ccZuAcPl.s 			page 24


 525:Generated_Source\PSoC5/LCD.c ****         /* Null Termination */
 526:Generated_Source\PSoC5/LCD.c ****         number[numDigits + 1u] = (char8) '\0';
 718              		.loc 1 526 0
 719 0074 431C     		adds	r3, r0, #1
 720 0076 1344     		add	r3, r3, r2
 721 0078 0022     		movs	r2, #0
 722 007a 03F8082C 		strb	r2, [r3, #-8]
 527:Generated_Source\PSoC5/LCD.c **** 
 528:Generated_Source\PSoC5/LCD.c ****         /* Print out number */
 529:Generated_Source\PSoC5/LCD.c ****         LCD_PrintString(&number[0u]);
 723              		.loc 1 529 0
 724 007e 02A8     		add	r0, sp, #8
 725 0080 FFF7FEFF 		bl	LCD_PrintString
 726              	.LVL85:
 530:Generated_Source\PSoC5/LCD.c ****     }
 727              		.loc 1 530 0
 728 0084 04B0     		add	sp, sp, #16
 729              		.cfi_def_cfa_offset 8
 730              		@ sp needed
 731 0086 10BD     		pop	{r4, pc}
 732              	.L57:
 733              		.align	2
 734              	.L56:
 735 0088 CDCCCCCC 		.word	-858993459
 736              		.cfi_endproc
 737              	.LFE14:
 738              		.size	LCD_PrintNumber, .-LCD_PrintNumber
 739              		.global	LCD_initVar
 740              		.global	LCD_enableState
 741              		.section	.rodata
 742              		.align	2
 743              		.set	.LANCHOR1,. + 0
 744              		.type	LCD_hex.4897, %object
 745              		.size	LCD_hex.4897, 16
 746              	LCD_hex.4897:
 747 0000 30313233 		.ascii	"0123456789ABCDEF"
 747      34353637 
 747      38394142 
 747      43444546 
 748              		.bss
 749              		.set	.LANCHOR0,. + 0
 750              		.type	LCD_enableState, %object
 751              		.size	LCD_enableState, 1
 752              	LCD_enableState:
 753 0000 00       		.space	1
 754              		.type	LCD_initVar, %object
 755              		.size	LCD_initVar, 1
 756              	LCD_initVar:
 757 0001 00       		.space	1
 758              		.text
 759              	.Letext0:
 760              		.file 2 "Generated_Source\\PSoC5\\cytypes.h"
 761              		.file 3 "Generated_Source\\PSoC5\\CyLib.h"