ARM GAS  C:\Users\thetr\AppData\Local\Temp\ccKRcKqg.s 			page 1


   1              		.syntax unified
   2              		.cpu cortex-m3
   3              		.fpu softvfp
   4              		.eabi_attribute 20, 1
   5              		.eabi_attribute 21, 1
   6              		.eabi_attribute 23, 3
   7              		.eabi_attribute 24, 1
   8              		.eabi_attribute 25, 1
   9              		.eabi_attribute 26, 1
  10              		.eabi_attribute 30, 1
  11              		.eabi_attribute 34, 1
  12              		.eabi_attribute 18, 4
  13              		.thumb
  14              		.file	"main.c"
  15              		.text
  16              	.Ltext0:
  17              		.cfi_sections	.debug_frame
  18              		.global	__aeabi_f2d
  19              		.section	.text.Enviar,"ax",%progbits
  20              		.align	2
  21              		.global	Enviar
  22              		.thumb
  23              		.thumb_func
  24              		.type	Enviar, %function
  25              	Enviar:
  26              	.LFB63:
  27              		.file 1 "main.c"
   1:main.c        **** /* ========================================
   2:main.c        ****  *
   3:main.c        ****  * Copyright YOUR COMPANY, THE YEAR
   4:main.c        ****  * All Rights Reserved
   5:main.c        ****  * UNPUBLISHED, LICENSED SOFTWARE.
   6:main.c        ****  *
   7:main.c        ****  * CONFIDENTIAL AND PROPRIETARY INFORMATION
   8:main.c        ****  * WHICH IS THE PROPERTY OF your company.
   9:main.c        ****  *
  10:main.c        ****  * ========================================
  11:main.c        **** */
  12:main.c        **** #include "project.h"
  13:main.c        **** #include <stdio.h>
  14:main.c        **** 
  15:main.c        **** int32 enteros[3];
  16:main.c        **** float32 VoltsADC[3];
  17:main.c        **** char str[12],str2[12];
  18:main.c        **** char recibir;
  19:main.c        **** 
  20:main.c        **** int canal=0;
  21:main.c        **** 
  22:main.c        **** CY_ISR(Enviar)
  23:main.c        **** {
  28              		.loc 1 23 0
  29              		.cfi_startproc
  30              		@ args = 0, pretend = 0, frame = 0
  31              		@ frame_needed = 0, uses_anonymous_args = 0
  32 0000 10B5     		push	{r4, lr}
  33              		.cfi_def_cfa_offset 8
  34              		.cfi_offset 4, -8
ARM GAS  C:\Users\thetr\AppData\Local\Temp\ccKRcKqg.s 			page 2


  35              		.cfi_offset 14, -4
  24:main.c        ****     if (canal==0)
  36              		.loc 1 24 0
  37 0002 1B4B     		ldr	r3, .L6
  38 0004 1B68     		ldr	r3, [r3]
  39 0006 6BB9     		cbnz	r3, .L2
  25:main.c        ****     {
  26:main.c        ****         sprintf(str2,"%.3f \n \r",VoltsADC[0]);
  40              		.loc 1 26 0
  41 0008 1A4C     		ldr	r4, .L6+4
  42 000a 1B4B     		ldr	r3, .L6+8
  43 000c 1868     		ldr	r0, [r3]	@ float
  44 000e FFF7FEFF 		bl	__aeabi_f2d
  45              	.LVL0:
  46 0012 0246     		mov	r2, r0
  47 0014 0B46     		mov	r3, r1
  48 0016 2046     		mov	r0, r4
  49 0018 1849     		ldr	r1, .L6+12
  50 001a FFF7FEFF 		bl	sprintf
  51              	.LVL1:
  27:main.c        ****         UART_PutString(str2);
  52              		.loc 1 27 0
  53 001e 2046     		mov	r0, r4
  54 0020 FFF7FEFF 		bl	UART_PutString
  55              	.LVL2:
  56              	.L2:
  28:main.c        ****     }
  29:main.c        ****      if (canal==1)
  57              		.loc 1 29 0
  58 0024 124B     		ldr	r3, .L6
  59 0026 1B68     		ldr	r3, [r3]
  60 0028 012B     		cmp	r3, #1
  61 002a 0DD1     		bne	.L3
  30:main.c        ****     {
  31:main.c        ****         sprintf(str2,"%.3f \n \r",VoltsADC[1]);
  62              		.loc 1 31 0
  63 002c 114C     		ldr	r4, .L6+4
  64 002e 124B     		ldr	r3, .L6+8
  65 0030 5868     		ldr	r0, [r3, #4]	@ float
  66 0032 FFF7FEFF 		bl	__aeabi_f2d
  67              	.LVL3:
  68 0036 0246     		mov	r2, r0
  69 0038 0B46     		mov	r3, r1
  70 003a 2046     		mov	r0, r4
  71 003c 0F49     		ldr	r1, .L6+12
  72 003e FFF7FEFF 		bl	sprintf
  73              	.LVL4:
  32:main.c        ****         UART_PutString(str2);
  74              		.loc 1 32 0
  75 0042 2046     		mov	r0, r4
  76 0044 FFF7FEFF 		bl	UART_PutString
  77              	.LVL5:
  78              	.L3:
  33:main.c        ****     }
  34:main.c        ****      if (canal==2)
  79              		.loc 1 34 0
  80 0048 094B     		ldr	r3, .L6
ARM GAS  C:\Users\thetr\AppData\Local\Temp\ccKRcKqg.s 			page 3


  81 004a 1B68     		ldr	r3, [r3]
  82 004c 022B     		cmp	r3, #2
  83 004e 0DD1     		bne	.L1
  35:main.c        ****     {
  36:main.c        ****         sprintf(str2,"%.3f \n \r",VoltsADC[2]);
  84              		.loc 1 36 0
  85 0050 084C     		ldr	r4, .L6+4
  86 0052 094B     		ldr	r3, .L6+8
  87 0054 9868     		ldr	r0, [r3, #8]	@ float
  88 0056 FFF7FEFF 		bl	__aeabi_f2d
  89              	.LVL6:
  90 005a 0246     		mov	r2, r0
  91 005c 0B46     		mov	r3, r1
  92 005e 2046     		mov	r0, r4
  93 0060 0649     		ldr	r1, .L6+12
  94 0062 FFF7FEFF 		bl	sprintf
  95              	.LVL7:
  37:main.c        ****         UART_PutString(str2);
  96              		.loc 1 37 0
  97 0066 2046     		mov	r0, r4
  98 0068 FFF7FEFF 		bl	UART_PutString
  99              	.LVL8:
 100              	.L1:
 101 006c 10BD     		pop	{r4, pc}
 102              	.L7:
 103 006e 00BF     		.align	2
 104              	.L6:
 105 0070 00000000 		.word	.LANCHOR0
 106 0074 00000000 		.word	str2
 107 0078 00000000 		.word	VoltsADC
 108 007c 00000000 		.word	.LC0
 109              		.cfi_endproc
 110              	.LFE63:
 111              		.size	Enviar, .-Enviar
 112              		.section	.text.InterruptRX,"ax",%progbits
 113              		.align	2
 114              		.global	InterruptRX
 115              		.thumb
 116              		.thumb_func
 117              		.type	InterruptRX, %function
 118              	InterruptRX:
 119              	.LFB64:
  38:main.c        ****     }
  39:main.c        **** }
  40:main.c        **** 
  41:main.c        **** CY_ISR(InterruptRX)
  42:main.c        **** {
 120              		.loc 1 42 0
 121              		.cfi_startproc
 122              		@ args = 0, pretend = 0, frame = 0
 123              		@ frame_needed = 0, uses_anonymous_args = 0
 124 0000 08B5     		push	{r3, lr}
 125              		.cfi_def_cfa_offset 8
 126              		.cfi_offset 3, -8
 127              		.cfi_offset 14, -4
  43:main.c        ****     recibir = UART_GetChar();
 128              		.loc 1 43 0
ARM GAS  C:\Users\thetr\AppData\Local\Temp\ccKRcKqg.s 			page 4


 129 0002 FFF7FEFF 		bl	UART_GetChar
 130              	.LVL9:
 131 0006 094B     		ldr	r3, .L13
 132 0008 1870     		strb	r0, [r3]
  44:main.c        ****     
  45:main.c        ****     if(recibir == '0')
 133              		.loc 1 45 0
 134 000a 3028     		cmp	r0, #48
 135 000c 02D1     		bne	.L9
  46:main.c        ****     {
  47:main.c        ****         canal=0;
 136              		.loc 1 47 0
 137 000e 0022     		movs	r2, #0
 138 0010 074B     		ldr	r3, .L13+4
 139 0012 1A60     		str	r2, [r3]
 140              	.L9:
  48:main.c        ****     }
  49:main.c        ****     
  50:main.c        ****     if(recibir == '1')
 141              		.loc 1 50 0
 142 0014 3128     		cmp	r0, #49
 143 0016 02D1     		bne	.L10
  51:main.c        ****     {
  52:main.c        ****         canal=1;
 144              		.loc 1 52 0
 145 0018 0122     		movs	r2, #1
 146 001a 054B     		ldr	r3, .L13+4
 147 001c 1A60     		str	r2, [r3]
 148              	.L10:
  53:main.c        ****     }
  54:main.c        ****     
  55:main.c        ****     if(recibir == '2')
 149              		.loc 1 55 0
 150 001e 3228     		cmp	r0, #50
 151 0020 02D1     		bne	.L8
  56:main.c        ****     {
  57:main.c        ****         canal=2;
 152              		.loc 1 57 0
 153 0022 0222     		movs	r2, #2
 154 0024 024B     		ldr	r3, .L13+4
 155 0026 1A60     		str	r2, [r3]
 156              	.L8:
 157 0028 08BD     		pop	{r3, pc}
 158              	.L14:
 159 002a 00BF     		.align	2
 160              	.L13:
 161 002c 00000000 		.word	recibir
 162 0030 00000000 		.word	.LANCHOR0
 163              		.cfi_endproc
 164              	.LFE64:
 165              		.size	InterruptRX, .-InterruptRX
 166              		.section	.text.main,"ax",%progbits
 167              		.align	2
 168              		.global	main
 169              		.thumb
 170              		.thumb_func
 171              		.type	main, %function
ARM GAS  C:\Users\thetr\AppData\Local\Temp\ccKRcKqg.s 			page 5


 172              	main:
 173              	.LFB65:
  58:main.c        ****     }
  59:main.c        **** }
  60:main.c        **** 
  61:main.c        **** int main(void)
  62:main.c        **** {
 174              		.loc 1 62 0
 175              		.cfi_startproc
 176              		@ Volatile: function does not return.
 177              		@ args = 0, pretend = 0, frame = 0
 178              		@ frame_needed = 0, uses_anonymous_args = 0
 179 0000 08B5     		push	{r3, lr}
 180              		.cfi_def_cfa_offset 8
 181              		.cfi_offset 3, -8
 182              		.cfi_offset 14, -4
  63:main.c        ****     CyGlobalIntEnable; 
 183              		.loc 1 63 0
 184              	@ 63 "main.c" 1
 185 0002 62B6     		CPSIE   i
 186              	@ 0 "" 2
  64:main.c        ****     
  65:main.c        ****     PWM_Start();
 187              		.loc 1 65 0
 188              		.thumb
 189 0004 FFF7FEFF 		bl	PWM_Start
 190              	.LVL10:
  66:main.c        ****     LCD_Start();
 191              		.loc 1 66 0
 192 0008 FFF7FEFF 		bl	LCD_Start
 193              	.LVL11:
  67:main.c        ****     LCD_Position(0,0);
 194              		.loc 1 67 0
 195 000c 0020     		movs	r0, #0
 196 000e 0146     		mov	r1, r0
 197 0010 FFF7FEFF 		bl	LCD_Position
 198              	.LVL12:
  68:main.c        ****     LCD_PrintString("Ejemplo ADC+UART FD");
 199              		.loc 1 68 0
 200 0014 4548     		ldr	r0, .L18
 201 0016 FFF7FEFF 		bl	LCD_PrintString
 202              	.LVL13:
  69:main.c        ****     AMux_Start();
 203              		.loc 1 69 0
 204 001a FFF7FEFF 		bl	AMux_Start
 205              	.LVL14:
  70:main.c        ****     ADC_Start();
 206              		.loc 1 70 0
 207 001e FFF7FEFF 		bl	ADC_Start
 208              	.LVL15:
  71:main.c        ****     UART_Start();
 209              		.loc 1 71 0
 210 0022 FFF7FEFF 		bl	UART_Start
 211              	.LVL16:
  72:main.c        ****     
  73:main.c        ****     isrRX_StartEx(InterruptRX);
 212              		.loc 1 73 0
ARM GAS  C:\Users\thetr\AppData\Local\Temp\ccKRcKqg.s 			page 6


 213 0026 4248     		ldr	r0, .L18+4
 214 0028 FFF7FEFF 		bl	isrRX_StartEx
 215              	.LVL17:
  74:main.c        ****     isrEnvio_StartEx(Enviar);
 216              		.loc 1 74 0
 217 002c 4148     		ldr	r0, .L18+8
 218 002e FFF7FEFF 		bl	isrEnvio_StartEx
 219              	.LVL18:
 220              	.L16:
  75:main.c        ****     
  76:main.c        ****     for(;;)
  77:main.c        ****     {
  78:main.c        ****         AMux_FastSelect(0);
 221              		.loc 1 78 0 discriminator 1
 222 0032 0020     		movs	r0, #0
 223 0034 FFF7FEFF 		bl	AMux_FastSelect
 224              	.LVL19:
  79:main.c        ****         ADC_StartConvert();
 225              		.loc 1 79 0 discriminator 1
 226 0038 FFF7FEFF 		bl	ADC_StartConvert
 227              	.LVL20:
  80:main.c        ****         ADC_IsEndConversion(ADC_WAIT_FOR_RESULT);
 228              		.loc 1 80 0 discriminator 1
 229 003c 0020     		movs	r0, #0
 230 003e FFF7FEFF 		bl	ADC_IsEndConversion
 231              	.LVL21:
  81:main.c        ****         enteros[0]=ADC_GetResult32();
 232              		.loc 1 81 0 discriminator 1
 233 0042 FFF7FEFF 		bl	ADC_GetResult32
 234              	.LVL22:
 235 0046 3C4C     		ldr	r4, .L18+12
 236 0048 2060     		str	r0, [r4]
  82:main.c        ****         ADC_StopConvert();
 237              		.loc 1 82 0 discriminator 1
 238 004a FFF7FEFF 		bl	ADC_StopConvert
 239              	.LVL23:
  83:main.c        ****         
  84:main.c        ****         AMux_FastSelect(1);
 240              		.loc 1 84 0 discriminator 1
 241 004e 0120     		movs	r0, #1
 242 0050 FFF7FEFF 		bl	AMux_FastSelect
 243              	.LVL24:
  85:main.c        ****         ADC_StartConvert();
 244              		.loc 1 85 0 discriminator 1
 245 0054 FFF7FEFF 		bl	ADC_StartConvert
 246              	.LVL25:
  86:main.c        ****         ADC_IsEndConversion(ADC_WAIT_FOR_RESULT);
 247              		.loc 1 86 0 discriminator 1
 248 0058 0020     		movs	r0, #0
 249 005a FFF7FEFF 		bl	ADC_IsEndConversion
 250              	.LVL26:
  87:main.c        ****         enteros[1]=ADC_GetResult32();
 251              		.loc 1 87 0 discriminator 1
 252 005e FFF7FEFF 		bl	ADC_GetResult32
 253              	.LVL27:
 254 0062 6060     		str	r0, [r4, #4]
  88:main.c        ****         ADC_StopConvert();
ARM GAS  C:\Users\thetr\AppData\Local\Temp\ccKRcKqg.s 			page 7


 255              		.loc 1 88 0 discriminator 1
 256 0064 FFF7FEFF 		bl	ADC_StopConvert
 257              	.LVL28:
  89:main.c        ****         
  90:main.c        ****         AMux_FastSelect(2);
 258              		.loc 1 90 0 discriminator 1
 259 0068 0220     		movs	r0, #2
 260 006a FFF7FEFF 		bl	AMux_FastSelect
 261              	.LVL29:
  91:main.c        ****         ADC_StartConvert();
 262              		.loc 1 91 0 discriminator 1
 263 006e FFF7FEFF 		bl	ADC_StartConvert
 264              	.LVL30:
  92:main.c        ****         ADC_IsEndConversion(ADC_WAIT_FOR_RESULT);
 265              		.loc 1 92 0 discriminator 1
 266 0072 0020     		movs	r0, #0
 267 0074 FFF7FEFF 		bl	ADC_IsEndConversion
 268              	.LVL31:
  93:main.c        ****         enteros[2]=ADC_GetResult32();
 269              		.loc 1 93 0 discriminator 1
 270 0078 FFF7FEFF 		bl	ADC_GetResult32
 271              	.LVL32:
 272 007c A060     		str	r0, [r4, #8]
  94:main.c        ****         ADC_StopConvert();
 273              		.loc 1 94 0 discriminator 1
 274 007e FFF7FEFF 		bl	ADC_StopConvert
 275              	.LVL33:
  95:main.c        ****         
  96:main.c        ****         VoltsADC[0] = ADC_CountsTo_Volts(enteros[0]);
 276              		.loc 1 96 0 discriminator 1
 277 0082 2068     		ldr	r0, [r4]
 278 0084 FFF7FEFF 		bl	ADC_CountsTo_Volts
 279              	.LVL34:
 280 0088 2C4D     		ldr	r5, .L18+16
 281 008a 2860     		str	r0, [r5]	@ float
  97:main.c        ****         VoltsADC[1] = ADC_CountsTo_Volts(enteros[1]);
 282              		.loc 1 97 0 discriminator 1
 283 008c 6068     		ldr	r0, [r4, #4]
 284 008e FFF7FEFF 		bl	ADC_CountsTo_Volts
 285              	.LVL35:
 286 0092 6860     		str	r0, [r5, #4]	@ float
  98:main.c        ****         VoltsADC[2] = ADC_CountsTo_Volts(enteros[2]);
 287              		.loc 1 98 0 discriminator 1
 288 0094 A068     		ldr	r0, [r4, #8]
 289 0096 FFF7FEFF 		bl	ADC_CountsTo_Volts
 290              	.LVL36:
 291 009a A860     		str	r0, [r5, #8]	@ float
  99:main.c        ****         
 100:main.c        ****         sprintf(str,"%.3f ",VoltsADC[0]);
 292              		.loc 1 100 0 discriminator 1
 293 009c 284C     		ldr	r4, .L18+20
 294 009e 294E     		ldr	r6, .L18+24
 295 00a0 2868     		ldr	r0, [r5]	@ float
 296 00a2 FFF7FEFF 		bl	__aeabi_f2d
 297              	.LVL37:
 298 00a6 0246     		mov	r2, r0
 299 00a8 0B46     		mov	r3, r1
ARM GAS  C:\Users\thetr\AppData\Local\Temp\ccKRcKqg.s 			page 8


 300 00aa 2046     		mov	r0, r4
 301 00ac 3146     		mov	r1, r6
 302 00ae FFF7FEFF 		bl	sprintf
 303              	.LVL38:
 101:main.c        ****         LCD_Position(1,0);
 304              		.loc 1 101 0 discriminator 1
 305 00b2 0120     		movs	r0, #1
 306 00b4 0021     		movs	r1, #0
 307 00b6 FFF7FEFF 		bl	LCD_Position
 308              	.LVL39:
 102:main.c        ****         LCD_PrintString("A0: ");
 309              		.loc 1 102 0 discriminator 1
 310 00ba 2348     		ldr	r0, .L18+28
 311 00bc FFF7FEFF 		bl	LCD_PrintString
 312              	.LVL40:
 103:main.c        ****         LCD_PrintString(str);
 313              		.loc 1 103 0 discriminator 1
 314 00c0 2046     		mov	r0, r4
 315 00c2 FFF7FEFF 		bl	LCD_PrintString
 316              	.LVL41:
 104:main.c        ****         
 105:main.c        ****         sprintf(str,"%.3f ",VoltsADC[1]);
 317              		.loc 1 105 0 discriminator 1
 318 00c6 6868     		ldr	r0, [r5, #4]	@ float
 319 00c8 FFF7FEFF 		bl	__aeabi_f2d
 320              	.LVL42:
 321 00cc 0246     		mov	r2, r0
 322 00ce 0B46     		mov	r3, r1
 323 00d0 2046     		mov	r0, r4
 324 00d2 3146     		mov	r1, r6
 325 00d4 FFF7FEFF 		bl	sprintf
 326              	.LVL43:
 106:main.c        ****         LCD_Position(1,11);
 327              		.loc 1 106 0 discriminator 1
 328 00d8 0120     		movs	r0, #1
 329 00da 0B21     		movs	r1, #11
 330 00dc FFF7FEFF 		bl	LCD_Position
 331              	.LVL44:
 107:main.c        ****         LCD_PrintString("A1: ");
 332              		.loc 1 107 0 discriminator 1
 333 00e0 1A48     		ldr	r0, .L18+32
 334 00e2 FFF7FEFF 		bl	LCD_PrintString
 335              	.LVL45:
 108:main.c        ****         LCD_PrintString(str);
 336              		.loc 1 108 0 discriminator 1
 337 00e6 2046     		mov	r0, r4
 338 00e8 FFF7FEFF 		bl	LCD_PrintString
 339              	.LVL46:
 109:main.c        ****         
 110:main.c        ****         sprintf(str,"%.3f ",VoltsADC[2]);
 340              		.loc 1 110 0 discriminator 1
 341 00ec A868     		ldr	r0, [r5, #8]	@ float
 342 00ee FFF7FEFF 		bl	__aeabi_f2d
 343              	.LVL47:
 344 00f2 0246     		mov	r2, r0
 345 00f4 0B46     		mov	r3, r1
 346 00f6 2046     		mov	r0, r4
ARM GAS  C:\Users\thetr\AppData\Local\Temp\ccKRcKqg.s 			page 9


 347 00f8 3146     		mov	r1, r6
 348 00fa FFF7FEFF 		bl	sprintf
 349              	.LVL48:
 111:main.c        ****         LCD_Position(2,5);
 350              		.loc 1 111 0 discriminator 1
 351 00fe 0220     		movs	r0, #2
 352 0100 0521     		movs	r1, #5
 353 0102 FFF7FEFF 		bl	LCD_Position
 354              	.LVL49:
 112:main.c        ****         LCD_PrintString("A2: ");
 355              		.loc 1 112 0 discriminator 1
 356 0106 1248     		ldr	r0, .L18+36
 357 0108 FFF7FEFF 		bl	LCD_PrintString
 358              	.LVL50:
 113:main.c        ****         LCD_PrintString(str);
 359              		.loc 1 113 0 discriminator 1
 360 010c 2046     		mov	r0, r4
 361 010e FFF7FEFF 		bl	LCD_PrintString
 362              	.LVL51:
 114:main.c        ****         
 115:main.c        ****         LCD_Position(3,5);
 363              		.loc 1 115 0 discriminator 1
 364 0112 0320     		movs	r0, #3
 365 0114 0521     		movs	r1, #5
 366 0116 FFF7FEFF 		bl	LCD_Position
 367              	.LVL52:
 116:main.c        ****         LCD_PrintString("Canal: ");
 368              		.loc 1 116 0 discriminator 1
 369 011a 0E48     		ldr	r0, .L18+40
 370 011c FFF7FEFF 		bl	LCD_PrintString
 371              	.LVL53:
 117:main.c        ****         LCD_PrintNumber(canal);
 372              		.loc 1 117 0 discriminator 1
 373 0120 0D4B     		ldr	r3, .L18+44
 374 0122 1888     		ldrh	r0, [r3]
 375 0124 FFF7FEFF 		bl	LCD_PrintNumber
 376              	.LVL54:
 118:main.c        ****         
 119:main.c        ****     }
 377              		.loc 1 119 0 discriminator 1
 378 0128 83E7     		b	.L16
 379              	.L19:
 380 012a 00BF     		.align	2
 381              	.L18:
 382 012c 0C000000 		.word	.LC1
 383 0130 00000000 		.word	InterruptRX
 384 0134 00000000 		.word	Enviar
 385 0138 00000000 		.word	enteros
 386 013c 00000000 		.word	VoltsADC
 387 0140 00000000 		.word	str
 388 0144 20000000 		.word	.LC2
 389 0148 28000000 		.word	.LC3
 390 014c 30000000 		.word	.LC4
 391 0150 38000000 		.word	.LC5
 392 0154 40000000 		.word	.LC6
 393 0158 00000000 		.word	.LANCHOR0
 394              		.cfi_endproc
ARM GAS  C:\Users\thetr\AppData\Local\Temp\ccKRcKqg.s 			page 10


 395              	.LFE65:
 396              		.size	main, .-main
 397              		.global	canal
 398              		.comm	recibir,1,1
 399              		.comm	str2,12,4
 400              		.comm	str,12,4
 401              		.comm	VoltsADC,12,4
 402              		.comm	enteros,12,4
 403              		.section	.rodata.str1.4,"aMS",%progbits,1
 404              		.align	2
 405              	.LC0:
 406 0000 252E3366 		.ascii	"%.3f \012 \015\000"
 406      200A200D 
 406      00
 407 0009 000000   		.space	3
 408              	.LC1:
 409 000c 456A656D 		.ascii	"Ejemplo ADC+UART FD\000"
 409      706C6F20 
 409      4144432B 
 409      55415254 
 409      20464400 
 410              	.LC2:
 411 0020 252E3366 		.ascii	"%.3f \000"
 411      2000
 412 0026 0000     		.space	2
 413              	.LC3:
 414 0028 41303A20 		.ascii	"A0: \000"
 414      00
 415 002d 000000   		.space	3
 416              	.LC4:
 417 0030 41313A20 		.ascii	"A1: \000"
 417      00
 418 0035 000000   		.space	3
 419              	.LC5:
 420 0038 41323A20 		.ascii	"A2: \000"
 420      00
 421 003d 000000   		.space	3
 422              	.LC6:
 423 0040 43616E61 		.ascii	"Canal: \000"
 423      6C3A2000 
 424              		.bss
 425              		.align	2
 426              		.set	.LANCHOR0,. + 0
 427              		.type	canal, %object
 428              		.size	canal, 4
 429              	canal:
 430 0000 00000000 		.space	4
 431              		.text
 432              	.Letext0:
 433              		.file 2 "c:\\program files (x86)\\cypress\\psoc creator\\4.0\\psoc creator\\import\\gnu\\arm\\4.9.
 434              		.file 3 "c:\\program files (x86)\\cypress\\psoc creator\\4.0\\psoc creator\\import\\gnu\\arm\\4.9.
 435              		.file 4 "Generated_Source\\PSoC5/cytypes.h"
 436              		.file 5 "Generated_Source\\PSoC5/core_cm3.h"
 437              		.file 6 "Generated_Source\\PSoC5/PWM.h"
 438              		.file 7 "Generated_Source\\PSoC5/LCD.h"
 439              		.file 8 "Generated_Source\\PSoC5/UART.h"
 440              		.file 9 "Generated_Source\\PSoC5/AMux.h"
ARM GAS  C:\Users\thetr\AppData\Local\Temp\ccKRcKqg.s 			page 11


 441              		.file 10 "Generated_Source\\PSoC5/ADC.h"
 442              		.file 11 "Generated_Source\\PSoC5/isrRX.h"
 443              		.file 12 "Generated_Source\\PSoC5/isrEnvio.h"
 444              		.file 13 "c:\\program files (x86)\\cypress\\psoc creator\\4.0\\psoc creator\\import\\gnu\\arm\\4.9